ccollections
defaultdict
p0
(c__builtin__
list
p1
tp2
Rp3
I0
(lp4
sI1
(lp5
sI2
(lp6
sI3
(lp7
sI4
(lp8
sI5
(lp9
sI6
(lp10
sI7
(lp11
sI8
(lp12
sI9
(lp13
sI10
(lp14
sI11
(lp15
sI12
(lp16
sI13
(lp17
sI14
(lp18
sI15
(lp19
sI16
(lp20
sI17
(lp21
sI18
(lp22
sI19
(lp23
sI20
(lp24
sI21
(lp25
sI22
(lp26
sI23
(lp27
sI24
(lp28
sI25
(lp29
sI26
(lp30
sI27
(lp31
sI28
(lp32
sI29
(lp33
sI30
(lp34
sI31
(lp35
sI32
(lp36
sI33
(lp37
sI34
(lp38
sI35
(lp39
sI36
(lp40
sI37
(lp41
sI38
(lp42
sI39
(lp43
sI40
(lp44
sI41
(lp45
sI42
(lp46
sI43
(lp47
sI44
(lp48
sI45
(lp49
sI46
(lp50
sI47
(lp51
sI48
(lp52
sI49
(lp53
sI50
(lp54
sI51
(lp55
sI52
(lp56
sI53
(lp57
sI54
(lp58
sI55
(lp59
sI56
(lp60
sI57
(lp61
sI58
(lp62
sI59
(lp63
sI60
(lp64
sI61
(lp65
sI62
(lp66
sI63
(lp67
sI64
(lp68
sI65
(lp69
sI66
(lp70
sI67
(lp71
sI68
(lp72
sI69
(lp73
sI70
(lp74
sI71
(lp75
sI72
(lp76
sI73
(lp77
sI74
(lp78
sI75
(lp79
sI76
(lp80
sI77
(lp81
sI78
(lp82
sI79
(lp83
sI80
(lp84
sI81
(lp85
sI82
(lp86
sI83
(lp87
sI84
(lp88
sI85
(lp89
sI86
(lp90
sI87
(lp91
sI88
(lp92
sI89
(lp93
sI90
(lp94
sI91
(lp95
sI92
(lp96
sI93
(lp97
sI94
(lp98
sI95
(lp99
sI96
(lp100
sI97
(lp101
sI98
(lp102
sI99
(lp103
sI100
(lp104
sI101
(lp105
sI102
(lp106
sI103
(lp107
sI104
(lp108
sI105
(lp109
sI106
(lp110
sI107
(lp111
sI108
(lp112
sI109
(lp113
sI110
(lp114
sI111
(lp115
sI112
(lp116
sI113
(lp117
sI114
(lp118
sI115
(lp119
sI116
(lp120
sI117
(lp121
sI118
(lp122
sI119
(lp123
sI120
(lp124
sI121
(lp125
sI122
(lp126
sI123
(lp127
sI124
(lp128
sI125
(lp129
sI126
(lp130
sI127
(lp131
sI128
(lp132
sI129
(lp133
sI130
(lp134
sI131
(lp135
sI132
(lp136
sI133
(lp137
sI134
(lp138
sI135
(lp139
sI136
(lp140
sI137
(lp141
sI138
(lp142
sI139
(lp143
sI140
(lp144
sI141
(lp145
sI142
(lp146
sI143
(lp147
sI144
(lp148
sI145
(lp149
sI146
(lp150
sI147
(lp151
sI148
(lp152
sI149
(lp153
sI150
(lp154
sI151
(lp155
sI152
(lp156
sI153
(lp157
sI154
(lp158
sI155
(lp159
sI156
(lp160
sI157
(lp161
sI158
(lp162
sI159
(lp163
sI160
(lp164
sI161
(lp165
sI162
(lp166
sI163
(lp167
sI164
(lp168
sI165
(lp169
sI166
(lp170
sI167
(lp171
sI168
(lp172
sI169
(lp173
sI170
(lp174
sI171
(lp175
sI172
(lp176
sI173
(lp177
sI174
(lp178
sI175
(lp179
sI176
(lp180
sI177
(lp181
sI178
(lp182
sI179
(lp183
sI180
(lp184
sI181
(lp185
sI182
(lp186
sI183
(lp187
sI184
(lp188
sI185
(lp189
sI186
(lp190
sI187
(lp191
sI188
(lp192
sI189
(lp193
sI190
(lp194
sI191
(lp195
sI192
(lp196
sI193
(lp197
sI194
(lp198
sI195
(lp199
sI196
(lp200
sI197
(lp201
sI198
(lp202
sI199
(lp203
sI200
(lp204
sI201
(lp205
sI202
(lp206
sI203
(lp207
sI204
(lp208
sI205
(lp209
sI206
(lp210
sI207
(lp211
sI208
(lp212
sI209
(lp213
sI210
(lp214
sI211
(lp215
sI212
(lp216
sI213
(lp217
sI214
(lp218
sI215
(lp219
sI216
(lp220
sI217
(lp221
sI218
(lp222
sI219
(lp223
sI220
(lp224
sI221
(lp225
sI222
(lp226
sI223
(lp227
sI224
(lp228
sI225
(lp229
sI226
(lp230
sI227
(lp231
sI228
(lp232
sI229
(lp233
sI230
(lp234
sI231
(lp235
sI232
(lp236
sI233
(lp237
sI234
(lp238
sI235
(lp239
sI236
(lp240
sI237
(lp241
sI238
(lp242
sI239
(lp243
sI240
(lp244
sI241
(lp245
sI242
(lp246
sI243
(lp247
sI244
(lp248
sI245
(lp249
sI246
(lp250
sI247
(lp251
sI248
(lp252
sI249
(lp253
sI250
(lp254
sI251
(lp255
sI252
(lp256
sI253
(lp257
sI254
(lp258
sI255
(lp259
sI256
(lp260
sI257
(lp261
sI258
(lp262
sI259
(lp263
sI260
(lp264
sI261
(lp265
sI262
(lp266
sI263
(lp267
sI264
(lp268
sI265
(lp269
sI266
(lp270
sI267
(lp271
sI268
(lp272
sI269
(lp273
sI270
(lp274
sI271
(lp275
sI272
(lp276
sI273
(lp277
sI274
(lp278
sI275
(lp279
sI276
(lp280
sI277
(lp281
sI278
(lp282
sI279
(lp283
sI280
(lp284
sI281
(lp285
sI282
(lp286
sI283
(lp287
sI284
(lp288
sI285
(lp289
sI286
(lp290
sI287
(lp291
sI288
(lp292
sI289
(lp293
sI290
(lp294
sI291
(lp295
sI292
(lp296
sI293
(lp297
sI294
(lp298
sI295
(lp299
sI296
(lp300
sI297
(lp301
sI298
(lp302
sI299
(lp303
sI300
(lp304
sI301
(lp305
sI302
(lp306
sI303
(lp307
sI304
(lp308
sI305
(lp309
sI306
(lp310
sI307
(lp311
sI308
(lp312
sI309
(lp313
sI310
(lp314
sI311
(lp315
sI312
(lp316
sI313
(lp317
sI314
(lp318
sI315
(lp319
sI316
(lp320
sI317
(lp321
sI318
(lp322
sI319
(lp323
sI320
(lp324
sI321
(lp325
sI322
(lp326
sI323
(lp327
sI324
(lp328
sI325
(lp329
sI326
(lp330
sI327
(lp331
sI328
(lp332
sI329
(lp333
sI330
(lp334
sI331
(lp335
sI332
(lp336
sI333
(lp337
sI334
(lp338
sI335
(lp339
sI336
(lp340
sI337
(lp341
sI338
(lp342
sI339
(lp343
sI340
(lp344
sI341
(lp345
sI342
(lp346
sI343
(lp347
sI344
(lp348
sI345
(lp349
sI346
(lp350
sI347
(lp351
sI348
(lp352
sI349
(lp353
sI350
(lp354
sI351
(lp355
sI352
(lp356
sI353
(lp357
sI354
(lp358
sI355
(lp359
sI356
(lp360
sI357
(lp361
sI358
(lp362
sI359
(lp363
sI360
(lp364
sI361
(lp365
sI362
(lp366
sI363
(lp367
sI364
(lp368
sI365
(lp369
sI366
(lp370
sI367
(lp371
sI368
(lp372
sI369
(lp373
sI370
(lp374
sI371
(lp375
sI372
(lp376
sI373
(lp377
sI374
(lp378
sI375
(lp379
sI376
(lp380
sI377
(lp381
sI378
(lp382
sI379
(lp383
sI380
(lp384
sI381
(lp385
sI382
(lp386
sI383
(lp387
sI384
(lp388
sI385
(lp389
sI386
(lp390
sI387
(lp391
sI388
(lp392
sI389
(lp393
sI390
(lp394
sI391
(lp395
sI392
(lp396
sI393
(lp397
sI394
(lp398
sI395
(lp399
sI396
(lp400
sI397
(lp401
sI398
(lp402
sI399
(lp403
sI400
(lp404
sI401
(lp405
sI402
(lp406
sI403
(lp407
sI404
(lp408
sI405
(lp409
sI406
(lp410
sI407
(lp411
sI408
(lp412
sI409
(lp413
sI410
(lp414
sI411
(lp415
sI412
(lp416
sI413
(lp417
sI414
(lp418
sI415
(lp419
sI416
(lp420
sI417
(lp421
sI418
(lp422
sI419
(lp423
sI420
(lp424
sI421
(lp425
sI422
(lp426
sI423
(lp427
sI424
(lp428
sI425
(lp429
sI426
(lp430
sI427
(lp431
sI428
(lp432
sI429
(lp433
sI430
(lp434
sI431
(lp435
sI432
(lp436
sI433
(lp437
sI434
(lp438
sI435
(lp439
sI436
(lp440
sI437
(lp441
sI438
(lp442
sI439
(lp443
sI440
(lp444
sI441
(lp445
sI442
(lp446
sI443
(lp447
sI444
(lp448
sI445
(lp449
sI446
(lp450
sI447
(lp451
sI448
(lp452
sI449
(lp453
sI450
(lp454
sI451
(lp455
sI452
(lp456
sI453
(lp457
sI454
(lp458
sI455
(lp459
sI456
(lp460
sI457
(lp461
sI458
(lp462
sI459
(lp463
sI460
(lp464
sI461
(lp465
sI462
(lp466
sI463
(lp467
sI464
(lp468
sI465
(lp469
sI466
(lp470
sI467
(lp471
sI468
(lp472
sI469
(lp473
sI470
(lp474
sI471
(lp475
sI472
(lp476
sI473
(lp477
sI474
(lp478
sI475
(lp479
sI476
(lp480
sI477
(lp481
sI478
(lp482
sI479
(lp483
sI480
(lp484
sI481
(lp485
sI482
(lp486
sI483
(lp487
sI484
(lp488
sI485
(lp489
sI486
(lp490
sI487
(lp491
sI488
(lp492
sI489
(lp493
sI490
(lp494
sI491
(lp495
sI492
(lp496
sI493
(lp497
sI494
(lp498
sI495
(lp499
sI496
(lp500
sI497
(lp501
sI498
(lp502
sI499
(lp503
sI500
(lp504
sI501
(lp505
sI502
(lp506
sI503
(lp507
sI504
(lp508
sI505
(lp509
sI506
(lp510
sI507
(lp511
sI508
(lp512
sI509
(lp513
sI510
(lp514
sI511
(lp515
sI512
(lp516
sI513
(lp517
sI514
(lp518
sI515
(lp519
sI516
(lp520
sI517
(lp521
sI518
(lp522
sI519
(lp523
sI520
(lp524
sI521
(lp525
sI522
(lp526
sI523
(lp527
sI524
(lp528
sI525
(lp529
sI526
(lp530
sI527
(lp531
sI528
(lp532
sI529
(lp533
sI530
(lp534
sI531
(lp535
sI532
(lp536
sI533
(lp537
sI534
(lp538
sI535
(lp539
sI536
(lp540
sI537
(lp541
sI538
(lp542
sI539
(lp543
sI540
(lp544
sI541
(lp545
sI542
(lp546
sI543
(lp547
sI544
(lp548
sI545
(lp549
sI546
(lp550
sI547
(lp551
sI548
(lp552
sI549
(lp553
sI550
(lp554
sI551
(lp555
sI552
(lp556
sI553
(lp557
sI554
(lp558
sI555
(lp559
sI556
(lp560
sI557
(lp561
sI558
(lp562
sI559
(lp563
sI560
(lp564
sI561
(lp565
sI562
(lp566
sI563
(lp567
sI564
(lp568
sI565
(lp569
sI566
(lp570
sI567
(lp571
sI568
(lp572
sI569
(lp573
sI570
(lp574
sI571
(lp575
sI572
(lp576
sI573
(lp577
sI574
(lp578
sI575
(lp579
sI576
(lp580
sI577
(lp581
sI578
(lp582
sI579
(lp583
sI580
(lp584
sI581
(lp585
sI582
(lp586
sI583
(lp587
sI584
(lp588
sI585
(lp589
sI586
(lp590
sI587
(lp591
sI588
(lp592
sI589
(lp593
sI590
(lp594
sI591
(lp595
sI592
(lp596
sI593
(lp597
sI594
(lp598
sI595
(lp599
sI596
(lp600
sI597
(lp601
sI598
(lp602
sI599
(lp603
sI600
(lp604
sI601
(lp605
sI602
(lp606
sI603
(lp607
sI604
(lp608
sI605
(lp609
sI606
(lp610
sI607
(lp611
sI608
(lp612
sI609
(lp613
sI610
(lp614
sI611
(lp615
sI612
(lp616
sI613
(lp617
sI614
(lp618
sI615
(lp619
sI616
(lp620
sI617
(lp621
sI618
(lp622
sI619
(lp623
sI620
(lp624
sI621
(lp625
sI622
(lp626
sI623
(lp627
sI624
(lp628
sI625
(lp629
sI626
(lp630
sI627
(lp631
sI628
(lp632
sI629
(lp633
sI630
(lp634
sI631
(lp635
sI632
(lp636
sI633
(lp637
sI634
(lp638
sI635
(lp639
sI636
(lp640
sI637
(lp641
sI638
(lp642
sI639
(lp643
sI640
(lp644
sI641
(lp645
sI642
(lp646
sI643
(lp647
sI644
(lp648
sI645
(lp649
sI646
(lp650
sI647
(lp651
sI648
(lp652
sI649
(lp653
sI650
(lp654
sI651
(lp655
sI652
(lp656
sI653
(lp657
sI654
(lp658
sI655
(lp659
sI656
(lp660
sI657
(lp661
sI658
(lp662
sI659
(lp663
sI660
(lp664
sI661
(lp665
sI662
(lp666
sI663
(lp667
sI664
(lp668
sI665
(lp669
sI666
(lp670
sI667
(lp671
sI668
(lp672
sI669
(lp673
sI670
(lp674
sI671
(lp675
sI672
(lp676
sI673
(lp677
sI674
(lp678
sI675
(lp679
sI676
(lp680
sI677
(lp681
sI678
(lp682
sI679
(lp683
sI680
(lp684
sI681
(lp685
sI682
(lp686
sI683
(lp687
sI684
(lp688
sI685
(lp689
sI686
(lp690
sI687
(lp691
sI688
(lp692
sI689
(lp693
sI690
(lp694
sI691
(lp695
sI692
(lp696
sI693
(lp697
sI694
(lp698
sI695
(lp699
sI696
(lp700
sI697
(lp701
sI698
(lp702
sI699
(lp703
sI700
(lp704
sI701
(lp705
sI702
(lp706
sI703
(lp707
sI704
(lp708
sI705
(lp709
sI706
(lp710
sI707
(lp711
sI708
(lp712
sI709
(lp713
sI710
(lp714
sI711
(lp715
sI712
(lp716
sI713
(lp717
sI714
(lp718
sI715
(lp719
sI716
(lp720
sI717
(lp721
sI718
(lp722
sI719
(lp723
sI720
(lp724
sI721
(lp725
sI722
(lp726
sI723
(lp727
sI724
(lp728
sI725
(lp729
sI726
(lp730
sI727
(lp731
sI728
(lp732
sI729
(lp733
sI730
(lp734
sI731
(lp735
sI732
(lp736
sI733
(lp737
sI734
(lp738
sI735
(lp739
sI736
(lp740
sI737
(lp741
sI738
(lp742
sI739
(lp743
sI740
(lp744
sI741
(lp745
sI742
(lp746
sI743
(lp747
sI744
(lp748
sI745
(lp749
sI746
(lp750
sI747
(lp751
sI748
(lp752
sI749
(lp753
sI750
(lp754
sI751
(lp755
sI752
(lp756
sI753
(lp757
sI754
(lp758
sI755
(lp759
sI756
(lp760
sI757
(lp761
sI758
(lp762
sI759
(lp763
sI760
(lp764
sI761
(lp765
sI762
(lp766
sI763
(lp767
sI764
(lp768
sI765
(lp769
sI766
(lp770
sI767
(lp771
sI768
(lp772
sI769
(lp773
sI770
(lp774
sI771
(lp775
sI772
(lp776
sI773
(lp777
sI774
(lp778
sI775
(lp779
sI776
(lp780
sI777
(lp781
sI778
(lp782
sI779
(lp783
sI780
(lp784
sI781
(lp785
sI782
(lp786
sI783
(lp787
sI784
(lp788
sI785
(lp789
sI786
(lp790
sI787
(lp791
sI788
(lp792
sI789
(lp793
sI790
(lp794
sI791
(lp795
sI792
(lp796
sI793
(lp797
sI794
(lp798
sI795
(lp799
sI796
(lp800
sI797
(lp801
sI798
(lp802
sI799
(lp803
sI800
(lp804
sI801
(lp805
sI802
(lp806
sI803
(lp807
sI804
(lp808
sI805
(lp809
sI806
(lp810
sI807
(lp811
sI808
(lp812
sI809
(lp813
sI810
(lp814
sI811
(lp815
sI812
(lp816
sI813
(lp817
sI814
(lp818
sI815
(lp819
sI816
(lp820
sI817
(lp821
sI818
(lp822
sI819
(lp823
sI820
(lp824
sI821
(lp825
sI822
(lp826
sI823
(lp827
sI824
(lp828
sI825
(lp829
sI826
(lp830
sI827
(lp831
sI828
(lp832
sI829
(lp833
sI830
(lp834
sI831
(lp835
sI832
(lp836
sI833
(lp837
sI834
(lp838
sI835
(lp839
sI836
(lp840
sI837
(lp841
sI838
(lp842
sI839
(lp843
sI840
(lp844
sI841
(lp845
sI842
(lp846
sI843
(lp847
sI844
(lp848
sI845
(lp849
sI846
(lp850
sI847
(lp851
sI848
(lp852
sI849
(lp853
sI850
(lp854
sI851
(lp855
sI852
(lp856
sI853
(lp857
sI854
(lp858
sI855
(lp859
sI856
(lp860
sI857
(lp861
sI858
(lp862
sI859
(lp863
sI860
(lp864
sI861
(lp865
sI862
(lp866
sI863
(lp867
sI864
(lp868
sI865
(lp869
sI866
(lp870
sI867
(lp871
sI868
(lp872
sI869
(lp873
sI870
(lp874
sI871
(lp875
sI872
(lp876
sI873
(lp877
sI874
(lp878
sI875
(lp879
sI876
(lp880
sI877
(lp881
sI878
(lp882
sI879
(lp883
sI880
(lp884
sI881
(lp885
sI882
(lp886
sI883
(lp887
sI884
(lp888
sI885
(lp889
sI886
(lp890
sI887
(lp891
sI888
(lp892
sI889
(lp893
sI890
(lp894
sI891
(lp895
sI892
(lp896
sI893
(lp897
sI894
(lp898
sI895
(lp899
sI896
(lp900
sI897
(lp901
sI898
(lp902
sI899
(lp903
sI900
(lp904
sI901
(lp905
sI902
(lp906
sI903
(lp907
sI904
(lp908
sI905
(lp909
sI906
(lp910
sI907
(lp911
sI908
(lp912
sI909
(lp913
sI910
(lp914
sI911
(lp915
sI912
(lp916
sI913
(lp917
sI914
(lp918
sI915
(lp919
sI916
(lp920
sI917
(lp921
sI918
(lp922
sI919
(lp923
sI920
(lp924
sI921
(lp925
sI922
(lp926
sI923
(lp927
sI924
(lp928
sI925
(lp929
sI926
(lp930
sI927
(lp931
sI928
(lp932
sI929
(lp933
sI930
(lp934
sI931
(lp935
sI932
(lp936
sI933
(lp937
sI934
(lp938
sI935
(lp939
sI936
(lp940
sI937
(lp941
sI938
(lp942
sI939
(lp943
sI940
(lp944
sI941
(lp945
sI942
(lp946
sI943
(lp947
sI944
(lp948
sI945
(lp949
sI946
(lp950
sI947
(lp951
sI948
(lp952
sI949
(lp953
sI950
(lp954
sI951
(lp955
sI952
(lp956
sI953
(lp957
sI954
(lp958
sI955
(lp959
sI956
(lp960
sI957
(lp961
sI958
(lp962
sI959
(lp963
sI960
(lp964
sI961
(lp965
sI962
(lp966
sI963
(lp967
sI964
(lp968
sI965
(lp969
sI966
(lp970
sI967
(lp971
sI968
(lp972
sI969
(lp973
sI970
(lp974
sI971
(lp975
sI972
(lp976
sI973
(lp977
sI974
(lp978
sI975
(lp979
sI976
(lp980
sI977
(lp981
sI978
(lp982
sI979
(lp983
sI980
(lp984
sI981
(lp985
sI982
(lp986
sI983
(lp987
sI984
(lp988
sI985
(lp989
sI986
(lp990
sI987
(lp991
sI988
(lp992
sI989
(lp993
sI990
(lp994
sI991
(lp995
sI992
(lp996
sI993
(lp997
sI994
(lp998
sI995
(lp999
sI996
(lp1000
sI997
(lp1001
sI998
(lp1002
sI999
(lp1003
sI1000
(lp1004
sI1001
(lp1005
sI1002
(lp1006
sI1003
(lp1007
sI1004
(lp1008
sI1005
(lp1009
sI1006
(lp1010
sI1007
(lp1011
sI1008
(lp1012
sI1009
(lp1013
sI1010
(lp1014
sI1011
(lp1015
sI1012
(lp1016
sI1013
(lp1017
sI1014
(lp1018
sI1015
(lp1019
sI1016
(lp1020
sI1017
(lp1021
sI1018
(lp1022
sI1019
(lp1023
sI1020
(lp1024
sI1021
(lp1025
sI1022
(lp1026
sI1023
(lp1027
sI1024
(lp1028
sI1025
(lp1029
sI1026
(lp1030
sI1027
(lp1031
sI1028
(lp1032
sI1029
(lp1033
sI1030
(lp1034
sI1031
(lp1035
sI1032
(lp1036
sI1033
(lp1037
sI1034
(lp1038
sI1035
(lp1039
sI1036
(lp1040
sI1037
(lp1041
sI1038
(lp1042
sI1039
(lp1043
sI1040
(lp1044
sI1041
(lp1045
sI1042
(lp1046
sI1043
(lp1047
sI1044
(lp1048
sI1045
(lp1049
sI1046
(lp1050
sI1047
(lp1051
sI1048
(lp1052
sI1049
(lp1053
sI1050
(lp1054
sI1051
(lp1055
sI1052
(lp1056
sI1053
(lp1057
sI1054
(lp1058
sI1055
(lp1059
sI1056
(lp1060
sI1057
(lp1061
sI1058
(lp1062
sI1059
(lp1063
sI1060
(lp1064
sI1061
(lp1065
sI1062
(lp1066
sI1063
(lp1067
sI1064
(lp1068
sI1065
(lp1069
sI1066
(lp1070
sI1067
(lp1071
sI1068
(lp1072
sI1069
(lp1073
sI1070
(lp1074
sI1071
(lp1075
sI1072
(lp1076
sI1073
(lp1077
sI1074
(lp1078
sI1075
(lp1079
sI1076
(lp1080
sI1077
(lp1081
sI1078
(lp1082
sI1079
(lp1083
sI1080
(lp1084
sI1081
(lp1085
sI1082
(lp1086
sI1083
(lp1087
sI1084
(lp1088
sI1085
(lp1089
sI1086
(lp1090
sI1087
(lp1091
sI1088
(lp1092
sI1089
(lp1093
sI1090
(lp1094
sI1091
(lp1095
sI1092
(lp1096
sI1093
(lp1097
sI1094
(lp1098
sI1095
(lp1099
sI1096
(lp1100
sI1097
(lp1101
sI1098
(lp1102
sI1099
(lp1103
sI1100
(lp1104
sI1101
(lp1105
sI1102
(lp1106
sI1103
(lp1107
sI1104
(lp1108
sI1105
(lp1109
sI1106
(lp1110
sI1107
(lp1111
sI1108
(lp1112
sI1109
(lp1113
sI1110
(lp1114
sI1111
(lp1115
sI1112
(lp1116
sI1113
(lp1117
sI1114
(lp1118
sI1115
(lp1119
sI1116
(lp1120
sI1117
(lp1121
sI1118
(lp1122
sI1119
(lp1123
sI1120
(lp1124
sI1121
(lp1125
sI1122
(lp1126
sI1123
(lp1127
sI1124
(lp1128
sI1125
(lp1129
sI1126
(lp1130
sI1127
(lp1131
sI1128
(lp1132
sI1129
(lp1133
sI1130
(lp1134
sI1131
(lp1135
sI1132
(lp1136
sI1133
(lp1137
sI1134
(lp1138
sI1135
(lp1139
sI1136
(lp1140
sI1137
(lp1141
sI1138
(lp1142
sI1139
(lp1143
sI1140
(lp1144
sI1141
(lp1145
sI1142
(lp1146
sI1143
(lp1147
sI1144
(lp1148
sI1145
(lp1149
sI1146
(lp1150
sI1147
(lp1151
sI1148
(lp1152
sI1149
(lp1153
sI1150
(lp1154
sI1151
(lp1155
sI1152
(lp1156
sI1153
(lp1157
sI1154
(lp1158
sI1155
(lp1159
sI1156
(lp1160
sI1157
(lp1161
sI1158
(lp1162
sI1159
(lp1163
sI1160
(lp1164
sI1161
(lp1165
sI1162
(lp1166
sI1163
(lp1167
sI1164
(lp1168
sI1165
(lp1169
sI1166
(lp1170
sI1167
(lp1171
sI1168
(lp1172
sI1169
(lp1173
sI1170
(lp1174
sI1171
(lp1175
sI1172
(lp1176
sI1173
(lp1177
sI1174
(lp1178
sI1175
(lp1179
sI1176
(lp1180
sI1177
(lp1181
sI1178
(lp1182
sI1179
(lp1183
sI1180
(lp1184
sI1181
(lp1185
sI1182
(lp1186
sI1183
(lp1187
sI1184
(lp1188
sI1185
(lp1189
sI1186
(lp1190
sI1187
(lp1191
sI1188
(lp1192
sI1189
(lp1193
sI1190
(lp1194
sI1191
(lp1195
sI1192
(lp1196
sI1193
(lp1197
sI1194
(lp1198
sI1195
(lp1199
sI1196
(lp1200
sI1197
(lp1201
sI1198
(lp1202
sI1199
(lp1203
sI1200
(lp1204
sI1201
(lp1205
sI1202
(lp1206
sI1203
(lp1207
sI1204
(lp1208
sI1205
(lp1209
sI1206
(lp1210
sI1207
(lp1211
sI1208
(lp1212
sI1209
(lp1213
sI1210
(lp1214
sI1211
(lp1215
sI1212
(lp1216
sI1213
(lp1217
sI1214
(lp1218
sI1215
(lp1219
sI1216
(lp1220
sI1217
(lp1221
sI1218
(lp1222
sI1219
(lp1223
sI1220
(lp1224
sI1221
(lp1225
sI1222
(lp1226
sI1223
(lp1227
sI1224
(lp1228
sI1225
(lp1229
sI1226
(lp1230
sI1227
(lp1231
sI1228
(lp1232
sI1229
(lp1233
sI1230
(lp1234
sI1231
(lp1235
sI1232
(lp1236
sI1233
(lp1237
sI1234
(lp1238
sI1235
(lp1239
sI1236
(lp1240
sI1237
(lp1241
sI1238
(lp1242
sI1239
(lp1243
sI1240
(lp1244
sI1241
(lp1245
sI1242
(lp1246
sI1243
(lp1247
sI1244
(lp1248
sI1245
(lp1249
sI1246
(lp1250
sI1247
(lp1251
sI1248
(lp1252
sI1249
(lp1253
sI1250
(lp1254
sI1251
(lp1255
sI1252
(lp1256
sI1253
(lp1257
sI1254
(lp1258
sI1255
(lp1259
sI1256
(lp1260
sI1257
(lp1261
sI1258
(lp1262
sI1259
(lp1263
sI1260
(lp1264
sI1261
(lp1265
sI1262
(lp1266
sI1263
(lp1267
sI1264
(lp1268
sI1265
(lp1269
sI1266
(lp1270
sI1267
(lp1271
sI1268
(lp1272
sI1269
(lp1273
sI1270
(lp1274
sI1271
(lp1275
sI1272
(lp1276
sI1273
(lp1277
sI1274
(lp1278
sI1275
(lp1279
sI1276
(lp1280
sI1277
(lp1281
sI1278
(lp1282
sI1279
(lp1283
sI1280
(lp1284
sI1281
(lp1285
sI1282
(lp1286
sI1283
(lp1287
sI1284
(lp1288
sI1285
(lp1289
sI1286
(lp1290
sI1287
(lp1291
sI1288
(lp1292
sI1289
(lp1293
sI1290
(lp1294
sI1291
(lp1295
sI1292
(lp1296
sI1293
(lp1297
sI1294
(lp1298
sI1295
(lp1299
sI1296
(lp1300
sI1297
(lp1301
sI1298
(lp1302
sI1299
(lp1303
sI1300
(lp1304
sI1301
(lp1305
sI1302
(lp1306
sI1303
(lp1307
sI1304
(lp1308
sI1305
(lp1309
sI1306
(lp1310
sI1307
(lp1311
sI1308
(lp1312
sI1309
(lp1313
sI1310
(lp1314
sI1311
(lp1315
sI1312
(lp1316
sI1313
(lp1317
sI1314
(lp1318
sI1315
(lp1319
sI1316
(lp1320
sI1317
(lp1321
sI1318
(lp1322
sI1319
(lp1323
sI1320
(lp1324
sI1321
(lp1325
sI1322
(lp1326
sI1323
(lp1327
sI1324
(lp1328
sI1325
(lp1329
sI1326
(lp1330
sI1327
(lp1331
sI1328
(lp1332
sI1329
(lp1333
sI1330
(lp1334
sI1331
(lp1335
sI1332
(lp1336
sI1333
(lp1337
sI1334
(lp1338
sI1335
(lp1339
sI1336
(lp1340
sI1337
(lp1341
sI1338
(lp1342
sI1339
(lp1343
sI1340
(lp1344
sI1341
(lp1345
sI1342
(lp1346
sI1343
(lp1347
sI1344
(lp1348
sI1345
(lp1349
sI1346
(lp1350
sI1347
(lp1351
sI1348
(lp1352
sI1349
(lp1353
sI1350
(lp1354
sI1351
(lp1355
sI1352
(lp1356
sI1353
(lp1357
sI1354
(lp1358
sI1355
(lp1359
sI1356
(lp1360
sI1357
(lp1361
sI1358
(lp1362
sI1359
(lp1363
sI1360
(lp1364
sI1361
(lp1365
sI1362
(lp1366
sI1363
(lp1367
sI1364
(lp1368
sI1365
(lp1369
sI1366
(lp1370
sI1367
(lp1371
sI1368
(lp1372
sI1369
(lp1373
sI1370
(lp1374
sI1371
(lp1375
sI1372
(lp1376
sI1373
(lp1377
sI1374
(lp1378
sI1375
(lp1379
sI1376
(lp1380
sI1377
(lp1381
sI1378
(lp1382
sI1379
(lp1383
sI1380
(lp1384
sI1381
(lp1385
sI1382
(lp1386
sI1383
(lp1387
sI1384
(lp1388
sI1385
(lp1389
sI1386
(lp1390
sI1387
(lp1391
sI1388
(lp1392
sI1389
(lp1393
sI1390
(lp1394
sI1391
(lp1395
sI1392
(lp1396
sI1393
(lp1397
sI1394
(lp1398
sI1395
(lp1399
sI1396
(lp1400
sI1397
(lp1401
sI1398
(lp1402
sI1399
(lp1403
sI1400
(lp1404
sI1401
(lp1405
sI1402
(lp1406
sI1403
(lp1407
sI1404
(lp1408
sI1405
(lp1409
sI1406
(lp1410
sI1407
(lp1411
sI1408
(lp1412
sI1409
(lp1413
sI1410
(lp1414
sI1411
(lp1415
sI1412
(lp1416
sI1413
(lp1417
sI1414
(lp1418
sI1415
(lp1419
sI1416
(lp1420
sI1417
(lp1421
sI1418
(lp1422
sI1419
(lp1423
sI1420
(lp1424
sI1421
(lp1425
sI1422
(lp1426
sI1423
(lp1427
sI1424
(lp1428
sI1425
(lp1429
sI1426
(lp1430
sI1427
(lp1431
sI1428
(lp1432
sI1429
(lp1433
sI1430
(lp1434
sI1431
(lp1435
sI1432
(lp1436
sI1433
(lp1437
sI1434
(lp1438
sI1435
(lp1439
sI1436
(lp1440
sI1437
(lp1441
sI1438
(lp1442
sI1439
(lp1443
sI1440
(lp1444
sI1441
(lp1445
sI1442
(lp1446
sI1443
(lp1447
sI1444
(lp1448
sI1445
(lp1449
sI1446
(lp1450
sI1447
(lp1451
sI1448
(lp1452
sI1449
(lp1453
sI1450
(lp1454
sI1451
(lp1455
sI1452
(lp1456
sI1453
(lp1457
sI1454
(lp1458
sI1455
(lp1459
sI1456
(lp1460
sI1457
(lp1461
sI1458
(lp1462
sI1459
(lp1463
sI1460
(lp1464
sI1461
(lp1465
sI1462
(lp1466
sI1463
(lp1467
sI1464
(lp1468
sI1465
(lp1469
sI1466
(lp1470
sI1467
(lp1471
sI1468
(lp1472
sI1469
(lp1473
sI1470
(lp1474
sI1471
(lp1475
sI1472
(lp1476
sI1473
(lp1477
sI1474
(lp1478
sI1475
(lp1479
sI1476
(lp1480
sI1477
(lp1481
sI1478
(lp1482
sI1479
(lp1483
sI1480
(lp1484
sI1481
(lp1485
sI1482
(lp1486
sI1483
(lp1487
sI1484
(lp1488
sI1485
(lp1489
sI1486
(lp1490
sI1487
(lp1491
sI1488
(lp1492
sI1489
(lp1493
sI1490
(lp1494
sI1491
(lp1495
sI1492
(lp1496
sI1493
(lp1497
sI1494
(lp1498
sI1495
(lp1499
sI1496
(lp1500
sI1497
(lp1501
sI1498
(lp1502
sI1499
(lp1503
sI1500
(lp1504
sI1501
(lp1505
sI1502
(lp1506
sI1503
(lp1507
sI1504
(lp1508
sI1505
(lp1509
sI1506
(lp1510
sI1507
(lp1511
sI1508
(lp1512
sI1509
(lp1513
sI1510
(lp1514
sI1511
(lp1515
sI1512
(lp1516
sI1513
(lp1517
sI1514
(lp1518
sI1515
(lp1519
sI1516
(lp1520
sI1517
(lp1521
sI1518
(lp1522
sI1519
(lp1523
sI1520
(lp1524
sI1521
(lp1525
sI1522
(lp1526
sI1523
(lp1527
sI1524
(lp1528
sI1525
(lp1529
sI1526
(lp1530
sI1527
(lp1531
sI1528
(lp1532
sI1529
(lp1533
sI1530
(lp1534
sI1531
(lp1535
sI1532
(lp1536
sI1533
(lp1537
sI1534
(lp1538
sI1535
(lp1539
sI1536
(lp1540
sI1537
(lp1541
sI1538
(lp1542
sI1539
(lp1543
sI1540
(lp1544
sI1541
(lp1545
sI1542
(lp1546
sI1543
(lp1547
sI1544
(lp1548
sI1545
(lp1549
sI1546
(lp1550
sI1547
(lp1551
sI1548
(lp1552
sI1549
(lp1553
sI1550
(lp1554
sI1551
(lp1555
sI1552
(lp1556
sI1553
(lp1557
sI1554
(lp1558
sI1555
(lp1559
sI1556
(lp1560
sI1557
(lp1561
sI1558
(lp1562
sI1559
(lp1563
sI1560
(lp1564
sI1561
(lp1565
sI1562
(lp1566
sI1563
(lp1567
sI1564
(lp1568
sI1565
(lp1569
sI1566
(lp1570
sI1567
(lp1571
sI1568
(lp1572
sI1569
(lp1573
sI1570
(lp1574
sI1571
(lp1575
sI1572
(lp1576
sI1573
(lp1577
sI1574
(lp1578
sI1575
(lp1579
sI1576
(lp1580
sI1577
(lp1581
sI1578
(lp1582
sI1579
(lp1583
sI1580
(lp1584
sI1581
(lp1585
sI1582
(lp1586
sI1583
(lp1587
sI1584
(lp1588
sI1585
(lp1589
sI1586
(lp1590
sI1587
(lp1591
sI1588
(lp1592
sI1589
(lp1593
sI1590
(lp1594
sI1591
(lp1595
sI1592
(lp1596
sI1593
(lp1597
sI1594
(lp1598
sI1595
(lp1599
sI1596
(lp1600
sI1597
(lp1601
sI1598
(lp1602
sI1599
(lp1603
sI1600
(lp1604
sI1601
(lp1605
sI1602
(lp1606
sI1603
(lp1607
sI1604
(lp1608
sI1605
(lp1609
sI1606
(lp1610
sI1607
(lp1611
sI1608
(lp1612
sI1609
(lp1613
sI1610
(lp1614
sI1611
(lp1615
sI1612
(lp1616
sI1613
(lp1617
sI1614
(lp1618
sI1615
(lp1619
sI1616
(lp1620
sI1617
(lp1621
sI1618
(lp1622
sI1619
(lp1623
sI1620
(lp1624
sI1621
(lp1625
sI1622
(lp1626
sI1623
(lp1627
sI1624
(lp1628
sI1625
(lp1629
sI1626
(lp1630
sI1627
(lp1631
sI1628
(lp1632
sI1629
(lp1633
sI1630
(lp1634
sI1631
(lp1635
sI1632
(lp1636
sI1633
(lp1637
sI1634
(lp1638
sI1635
(lp1639
sI1636
(lp1640
sI1637
(lp1641
sI1638
(lp1642
sI1639
(lp1643
sI1640
(lp1644
sI1641
(lp1645
sI1642
(lp1646
sI1643
(lp1647
sI1644
(lp1648
sI1645
(lp1649
sI1646
(lp1650
sI1647
(lp1651
sI1648
(lp1652
sI1649
(lp1653
sI1650
(lp1654
sI1651
(lp1655
sI1652
(lp1656
sI1653
(lp1657
sI1654
(lp1658
sI1655
(lp1659
sI1656
(lp1660
sI1657
(lp1661
sI1658
(lp1662
sI1659
(lp1663
sI1660
(lp1664
sI1661
(lp1665
sI1662
(lp1666
sI1663
(lp1667
sI1664
(lp1668
sI1665
(lp1669
sI1666
(lp1670
sI1667
(lp1671
sI1668
(lp1672
sI1669
(lp1673
sI1670
(lp1674
sI1671
(lp1675
sI1672
(lp1676
sI1673
(lp1677
sI1674
(lp1678
sI1675
(lp1679
sI1676
(lp1680
sI1677
(lp1681
sI1678
(lp1682
sI1679
(lp1683
sI1680
(lp1684
sI1681
(lp1685
sI1682
(lp1686
sI1683
(lp1687
sI1684
(lp1688
sI1685
(lp1689
sI1686
(lp1690
sI1687
(lp1691
sI1688
(lp1692
sI1689
(lp1693
sI1690
(lp1694
sI1691
(lp1695
sI1692
(lp1696
sI1693
(lp1697
sI1694
(lp1698
sI1695
(lp1699
sI1696
(lp1700
sI1697
(lp1701
sI1698
(lp1702
sI1699
(lp1703
sI1700
(lp1704
sI1701
(lp1705
sI1702
(lp1706
sI1703
(lp1707
sI1704
(lp1708
sI1705
(lp1709
sI1706
(lp1710
sI1707
(lp1711
sI1708
(lp1712
sI1709
(lp1713
sI1710
(lp1714
sI1711
(lp1715
sI1712
(lp1716
sI1713
(lp1717
sI1714
(lp1718
sI1715
(lp1719
sI1716
(lp1720
sI1717
(lp1721
sI1718
(lp1722
sI1719
(lp1723
sI1720
(lp1724
sI1721
(lp1725
sI1722
(lp1726
sI1723
(lp1727
sI1724
(lp1728
sI1725
(lp1729
sI1726
(lp1730
sI1727
(lp1731
sI1728
(lp1732
sI1729
(lp1733
sI1730
(lp1734
sI1731
(lp1735
sI1732
(lp1736
sI1733
(lp1737
sI1734
(lp1738
sI1735
(lp1739
sI1736
(lp1740
sI1737
(lp1741
sI1738
(lp1742
sI1739
(lp1743
sI1740
(lp1744
sI1741
(lp1745
sI1742
(lp1746
sI1743
(lp1747
sI1744
(lp1748
sI1745
(lp1749
sI1746
(lp1750
sI1747
(lp1751
sI1748
(lp1752
sI1749
(lp1753
sI1750
(lp1754
sI1751
(lp1755
sI1752
(lp1756
sI1753
(lp1757
sI1754
(lp1758
sI1755
(lp1759
sI1756
(lp1760
sI1757
(lp1761
sI1758
(lp1762
sI1759
(lp1763
sI1760
(lp1764
sI1761
(lp1765
sI1762
(lp1766
sI1763
(lp1767
sI1764
(lp1768
sI1765
(lp1769
sI1766
(lp1770
sI1767
(lp1771
sI1768
(lp1772
sI1769
(lp1773
sI1770
(lp1774
sI1771
(lp1775
sI1772
(lp1776
sI1773
(lp1777
sI1774
(lp1778
sI1775
(lp1779
sI1776
(lp1780
sI1777
(lp1781
sI1778
(lp1782
sI1779
(lp1783
sI1780
(lp1784
sI1781
(lp1785
sI1782
(lp1786
sI1783
(lp1787
sI1784
(lp1788
sI1785
(lp1789
sI1786
(lp1790
sI1787
(lp1791
sI1788
(lp1792
sI1789
(lp1793
sI1790
(lp1794
sI1791
(lp1795
sI1792
(lp1796
sI1793
(lp1797
sI1794
(lp1798
sI1795
(lp1799
sI1796
(lp1800
sI1797
(lp1801
sI1798
(lp1802
sI1799
(lp1803
sI1800
(lp1804
sI1801
(lp1805
sI1802
(lp1806
sI1803
(lp1807
sI1804
(lp1808
sI1805
(lp1809
sI1806
(lp1810
sI1807
(lp1811
sI1808
(lp1812
sI1809
(lp1813
sI1810
(lp1814
sI1811
(lp1815
sI1812
(lp1816
sI1813
(lp1817
sI1814
(lp1818
sI1815
(lp1819
sI1816
(lp1820
sI1817
(lp1821
sI1818
(lp1822
sI1819
(lp1823
sI1820
(lp1824
sI1821
(lp1825
sI1822
(lp1826
sI1823
(lp1827
sI1824
(lp1828
sI1825
(lp1829
sI1826
(lp1830
sI1827
(lp1831
sI1828
(lp1832
sI1829
(lp1833
sI1830
(lp1834
sI1831
(lp1835
sI1832
(lp1836
sI1833
(lp1837
sI1834
(lp1838
sI1835
(lp1839
sI1836
(lp1840
sI1837
(lp1841
sI1838
(lp1842
sI1839
(lp1843
sI1840
(lp1844
sI1841
(lp1845
sI1842
(lp1846
sI1843
(lp1847
sI1844
(lp1848
sI1845
(lp1849
sI1846
(lp1850
sI1847
(lp1851
sI1848
(lp1852
sI1849
(lp1853
sI1850
(lp1854
sI1851
(lp1855
sI1852
(lp1856
sI1853
(lp1857
sI1854
(lp1858
sI1855
(lp1859
sI1856
(lp1860
sI1857
(lp1861
sI1858
(lp1862
sI1859
(lp1863
sI1860
(lp1864
sI1861
(lp1865
sI1862
(lp1866
sI1863
(lp1867
sI1864
(lp1868
sI1865
(lp1869
sI1866
(lp1870
sI1867
(lp1871
sI1868
(lp1872
sI1869
(lp1873
sI1870
(lp1874
sI1871
(lp1875
sI1872
(lp1876
sI1873
(lp1877
sI1874
(lp1878
sI1875
(lp1879
sI1876
(lp1880
sI1877
(lp1881
sI1878
(lp1882
sI1879
(lp1883
sI1880
(lp1884
sI1881
(lp1885
sI1882
(lp1886
sI1883
(lp1887
sI1884
(lp1888
sI1885
(lp1889
sI1886
(lp1890
sI1887
(lp1891
sI1888
(lp1892
sI1889
(lp1893
sI1890
(lp1894
sI1891
(lp1895
sI1892
(lp1896
sI1893
(lp1897
sI1894
(lp1898
sI1895
(lp1899
sI1896
(lp1900
sI1897
(lp1901
sI1898
(lp1902
sI1899
(lp1903
sI1900
(lp1904
sI1901
(lp1905
sI1902
(lp1906
sI1903
(lp1907
sI1904
(lp1908
sI1905
(lp1909
sI1906
(lp1910
sI1907
(lp1911
sI1908
(lp1912
sI1909
(lp1913
sI1910
(lp1914
sI1911
(lp1915
sI1912
(lp1916
sI1913
(lp1917
sI1914
(lp1918
sI1915
(lp1919
sI1916
(lp1920
sI1917
(lp1921
sI1918
(lp1922
sI1919
(lp1923
sI1920
(lp1924
sI1921
(lp1925
sI1922
(lp1926
sI1923
(lp1927
sI1924
(lp1928
sI1925
(lp1929
sI1926
(lp1930
sI1927
(lp1931
sI1928
(lp1932
sI1929
(lp1933
sI1930
(lp1934
sI1931
(lp1935
sI1932
(lp1936
sI1933
(lp1937
sI1934
(lp1938
sI1935
(lp1939
sI1936
(lp1940
sI1937
(lp1941
sI1938
(lp1942
sI1939
(lp1943
sI1940
(lp1944
sI1941
(lp1945
sI1942
(lp1946
sI1943
(lp1947
sI1944
(lp1948
sI1945
(lp1949
sI1946
(lp1950
sI1947
(lp1951
sI1948
(lp1952
sI1949
(lp1953
sI1950
(lp1954
sI1951
(lp1955
sI1952
(lp1956
sI1953
(lp1957
sI1954
(lp1958
sI1955
(lp1959
sI1956
(lp1960
sI1957
(lp1961
sI1958
(lp1962
sI1959
(lp1963
sI1960
(lp1964
sI1961
(lp1965
sI1962
(lp1966
sI1963
(lp1967
sI1964
(lp1968
sI1965
(lp1969
sI1966
(lp1970
sI1967
(lp1971
sI1968
(lp1972
sI1969
(lp1973
sI1970
(lp1974
sI1971
(lp1975
sI1972
(lp1976
sI1973
(lp1977
sI1974
(lp1978
sI1975
(lp1979
sI1976
(lp1980
sI1977
(lp1981
sI1978
(lp1982
sI1979
(lp1983
sI1980
(lp1984
sI1981
(lp1985
sI1982
(lp1986
sI1983
(lp1987
sI1984
(lp1988
sI1985
(lp1989
sI1986
(lp1990
sI1987
(lp1991
sI1988
(lp1992
sI1989
(lp1993
sI1990
(lp1994
sI1991
(lp1995
sI1992
(lp1996
sI1993
(lp1997
sI1994
(lp1998
sI1995
(lp1999
sI1996
(lp2000
sI1997
(lp2001
sI1998
(lp2002
sI1999
(lp2003
sI2000
(lp2004
sI2001
(lp2005
sI2002
(lp2006
sI2003
(lp2007
sI2004
(lp2008
sI2005
(lp2009
sI2006
(lp2010
sI2007
(lp2011
sI2008
(lp2012
sI2009
(lp2013
sI2010
(lp2014
sI2011
(lp2015
sI2012
(lp2016
sI2013
(lp2017
sI2014
(lp2018
sI2015
(lp2019
sI2016
(lp2020
sI2017
(lp2021
sI2018
(lp2022
sI2019
(lp2023
sI2020
(lp2024
sI2021
(lp2025
sI2022
(lp2026
sI2023
(lp2027
sI2024
(lp2028
sI2025
(lp2029
sI2026
(lp2030
sI2027
(lp2031
sI2028
(lp2032
sI2029
(lp2033
sI2030
(lp2034
sI2031
(lp2035
sI2032
(lp2036
sI2033
(lp2037
sI2034
(lp2038
sI2035
(lp2039
sI2036
(lp2040
sI2037
(lp2041
sI2038
(lp2042
sI2039
(lp2043
sI2040
(lp2044
sI2041
(lp2045
sI2042
(lp2046
sI2043
(lp2047
sI2044
(lp2048
sI2045
(lp2049
sI2046
(lp2050
sI2047
(lp2051
sI2048
(lp2052
sI2049
(lp2053
sI2050
(lp2054
sI2051
(lp2055
sI2052
(lp2056
sI2053
(lp2057
sI2054
(lp2058
sI2055
(lp2059
sI2056
(lp2060
sI2057
(lp2061
sI2058
(lp2062
sI2059
(lp2063
sI2060
(lp2064
sI2061
(lp2065
sI2062
(lp2066
sI2063
(lp2067
sI2064
(lp2068
sI2065
(lp2069
sI2066
(lp2070
sI2067
(lp2071
sI2068
(lp2072
sI2069
(lp2073
sI2070
(lp2074
sI2071
(lp2075
sI2072
(lp2076
sI2073
(lp2077
sI2074
(lp2078
sI2075
(lp2079
sI2076
(lp2080
sI2077
(lp2081
sI2078
(lp2082
sI2079
(lp2083
sI2080
(lp2084
sI2081
(lp2085
sI2082
(lp2086
sI2083
(lp2087
sI2084
(lp2088
sI2085
(lp2089
sI2086
(lp2090
sI2087
(lp2091
sI2088
(lp2092
sI2089
(lp2093
sI2090
(lp2094
sI2091
(lp2095
sI2092
(lp2096
sI2093
(lp2097
sI2094
(lp2098
sI2095
(lp2099
sI2096
(lp2100
sI2097
(lp2101
sI2098
(lp2102
sI2099
(lp2103
sI2100
(lp2104
sI2101
(lp2105
sI2102
(lp2106
sI2103
(lp2107
sI2104
(lp2108
sI2105
(lp2109
sI2106
(lp2110
sI2107
(lp2111
sI2108
(lp2112
sI2109
(lp2113
sI2110
(lp2114
sI2111
(lp2115
sI2112
(lp2116
sI2113
(lp2117
sI2114
(lp2118
sI2115
(lp2119
sI2116
(lp2120
sI2117
(lp2121
sI2118
(lp2122
sI2119
(lp2123
sI2120
(lp2124
sI2121
(lp2125
sI2122
(lp2126
sI2123
(lp2127
sI2124
(lp2128
sI2125
(lp2129
sI2126
(lp2130
sI2127
(lp2131
sI2128
(lp2132
sI2129
(lp2133
sI2130
(lp2134
sI2131
(lp2135
sI2132
(lp2136
sI2133
(lp2137
sI2134
(lp2138
sI2135
(lp2139
sI2136
(lp2140
sI2137
(lp2141
sI2138
(lp2142
sI2139
(lp2143
sI2140
(lp2144
sI2141
(lp2145
sI2142
(lp2146
sI2143
(lp2147
sI2144
(lp2148
sI2145
(lp2149
sI2146
(lp2150
sI2147
(lp2151
sI2148
(lp2152
sI2149
(lp2153
sI2150
(lp2154
sI2151
(lp2155
sI2152
(lp2156
sI2153
(lp2157
sI2154
(lp2158
sI2155
(lp2159
sI2156
(lp2160
sI2157
(lp2161
sI2158
(lp2162
sI2159
(lp2163
sI2160
(lp2164
sI2161
(lp2165
sI2162
(lp2166
sI2163
(lp2167
sI2164
(lp2168
sI2165
(lp2169
sI2166
(lp2170
sI2167
(lp2171
sI2168
(lp2172
sI2169
(lp2173
sI2170
(lp2174
sI2171
(lp2175
sI2172
(lp2176
sI2173
(lp2177
sI2174
(lp2178
sI2175
(lp2179
sI2176
(lp2180
sI2177
(lp2181
sI2178
(lp2182
sI2179
(lp2183
sI2180
(lp2184
sI2181
(lp2185
sI2182
(lp2186
sI2183
(lp2187
sI2184
(lp2188
sI2185
(lp2189
sI2186
(lp2190
sI2187
(lp2191
sI2188
(lp2192
sI2189
(lp2193
sI2190
(lp2194
sI2191
(lp2195
sI2192
(lp2196
sI2193
(lp2197
sI2194
(lp2198
sI2195
(lp2199
sI2196
(lp2200
sI2197
(lp2201
sI2198
(lp2202
sI2199
(lp2203
sI2200
(lp2204
sI2201
(lp2205
sI2202
(lp2206
sI2203
(lp2207
sI2204
(lp2208
sI2205
(lp2209
sI2206
(lp2210
sI2207
(lp2211
sI2208
(lp2212
sI2209
(lp2213
sI2210
(lp2214
sI2211
(lp2215
sI2212
(lp2216
sI2213
(lp2217
sI2214
(lp2218
sI2215
(lp2219
sI2216
(lp2220
sI2217
(lp2221
sI2218
(lp2222
sI2219
(lp2223
sI2220
(lp2224
sI2221
(lp2225
sI2222
(lp2226
sI2223
(lp2227
sI2224
(lp2228
sI2225
(lp2229
sI2226
(lp2230
sI2227
(lp2231
sI2228
(lp2232
sI2229
(lp2233
sI2230
(lp2234
sI2231
(lp2235
sI2232
(lp2236
sI2233
(lp2237
sI2234
(lp2238
sI2235
(lp2239
sI2236
(lp2240
sI2237
(lp2241
sI2238
(lp2242
sI2239
(lp2243
sI2240
(lp2244
sI2241
(lp2245
sI2242
(lp2246
sI2243
(lp2247
sI2244
(lp2248
sI2245
(lp2249
sI2246
(lp2250
sI2247
(lp2251
sI2248
(lp2252
sI2249
(lp2253
sI2250
(lp2254
sI2251
(lp2255
sI2252
(lp2256
sI2253
(lp2257
sI2254
(lp2258
sI2255
(lp2259
sI2256
(lp2260
sI2257
(lp2261
sI2258
(lp2262
sI2259
(lp2263
sI2260
(lp2264
sI2261
(lp2265
sI2262
(lp2266
sI2263
(lp2267
sI2264
(lp2268
sI2265
(lp2269
sI2266
(lp2270
sI2267
(lp2271
sI2268
(lp2272
sI2269
(lp2273
sI2270
(lp2274
sI2271
(lp2275
sI2272
(lp2276
sI2273
(lp2277
sI2274
(lp2278
sI2275
(lp2279
sI2276
(lp2280
sI2277
(lp2281
sI2278
(lp2282
sI2279
(lp2283
sI2280
(lp2284
sI2281
(lp2285
sI2282
(lp2286
sI2283
(lp2287
sI2284
(lp2288
sI2285
(lp2289
sI2286
(lp2290
sI2287
(lp2291
sI2288
(lp2292
sI2289
(lp2293
sI2290
(lp2294
sI2291
(lp2295
sI2292
(lp2296
sI2293
(lp2297
sI2294
(lp2298
sI2295
(lp2299
sI2296
(lp2300
sI2297
(lp2301
sI2298
(lp2302
sI2299
(lp2303
sI2300
(lp2304
sI2301
(lp2305
sI2302
(lp2306
sI2303
(lp2307
sI2304
(lp2308
sI2305
(lp2309
sI2306
(lp2310
sI2307
(lp2311
sI2308
(lp2312
sI2309
(lp2313
sI2310
(lp2314
sI2311
(lp2315
sI2312
(lp2316
sI2313
(lp2317
sI2314
(lp2318
sI2315
(lp2319
sI2316
(lp2320
sI2317
(lp2321
sI2318
(lp2322
sI2319
(lp2323
sI2320
(lp2324
sI2321
(lp2325
sI2322
(lp2326
sI2323
(lp2327
sI2324
(lp2328
sI2325
(lp2329
sI2326
(lp2330
sI2327
(lp2331
sI2328
(lp2332
sI2329
(lp2333
sI2330
(lp2334
sI2331
(lp2335
sI2332
(lp2336
sI2333
(lp2337
sI2334
(lp2338
sI2335
(lp2339
sI2336
(lp2340
sI2337
(lp2341
sI2338
(lp2342
sI2339
(lp2343
sI2340
(lp2344
sI2341
(lp2345
sI2342
(lp2346
sI2343
(lp2347
sI2344
(lp2348
sI2345
(lp2349
sI2346
(lp2350
sI2347
(lp2351
sI2348
(lp2352
sI2349
(lp2353
sI2350
(lp2354
sI2351
(lp2355
sI2352
(lp2356
sI2353
(lp2357
sI2354
(lp2358
sI2355
(lp2359
sI2356
(lp2360
sI2357
(lp2361
sI2358
(lp2362
sI2359
(lp2363
sI2360
(lp2364
sI2361
(lp2365
sI2362
(lp2366
sI2363
(lp2367
sI2364
(lp2368
sI2365
(lp2369
sI2366
(lp2370
sI2367
(lp2371
sI2368
(lp2372
sI2369
(lp2373
sI2370
(lp2374
sI2371
(lp2375
sI2372
(lp2376
sI2373
(lp2377
sI2374
(lp2378
sI2375
(lp2379
sI2376
(lp2380
sI2377
(lp2381
sI2378
(lp2382
sI2379
(lp2383
sI2380
(lp2384
sI2381
(lp2385
sI2382
(lp2386
sI2383
(lp2387
sI2384
(lp2388
sI2385
(lp2389
sI2386
(lp2390
sI2387
(lp2391
sI2388
(lp2392
sI2389
(lp2393
sI2390
(lp2394
sI2391
(lp2395
sI2392
(lp2396
sI2393
(lp2397
sI2394
(lp2398
sI2395
(lp2399
sI2396
(lp2400
sI2397
(lp2401
sI2398
(lp2402
sI2399
(lp2403
sI2400
(lp2404
sI2401
(lp2405
sI2402
(lp2406
sI2403
(lp2407
sI2404
(lp2408
sI2405
(lp2409
sI2406
(lp2410
sI2407
(lp2411
sI2408
(lp2412
sI2409
(lp2413
sI2410
(lp2414
sI2411
(lp2415
sI2412
(lp2416
sI2413
(lp2417
sI2414
(lp2418
sI2415
(lp2419
sI2416
(lp2420
sI2417
(lp2421
sI2418
(lp2422
sI2419
(lp2423
sI2420
(lp2424
sI2421
(lp2425
sI2422
(lp2426
sI2423
(lp2427
sI2424
(lp2428
sI2425
(lp2429
sI2426
(lp2430
sI2427
(lp2431
sI2428
(lp2432
sI2429
(lp2433
sI2430
(lp2434
sI2431
(lp2435
sI2432
(lp2436
sI2433
(lp2437
sI2434
(lp2438
sI2435
(lp2439
sI2436
(lp2440
sI2437
(lp2441
sI2438
(lp2442
sI2439
(lp2443
sI2440
(lp2444
sI2441
(lp2445
sI2442
(lp2446
sI2443
(lp2447
sI2444
(lp2448
sI2445
(lp2449
sI2446
(lp2450
sI2447
(lp2451
sI2448
(lp2452
sI2449
(lp2453
sI2450
(lp2454
sI2451
(lp2455
sI2452
(lp2456
sI2453
(lp2457
sI2454
(lp2458
sI2455
(lp2459
sI2456
(lp2460
sI2457
(lp2461
sI2458
(lp2462
sI2459
(lp2463
sI2460
(lp2464
sI2461
(lp2465
sI2462
(lp2466
sI2463
(lp2467
sI2464
(lp2468
sI2465
(lp2469
sI2466
(lp2470
sI2467
(lp2471
sI2468
(lp2472
sI2469
(lp2473
sI2470
(lp2474
sI2471
(lp2475
sI2472
(lp2476
sI2473
(lp2477
sI2474
(lp2478
sI2475
(lp2479
sI2476
(lp2480
sI2477
(lp2481
sI2478
(lp2482
sI2479
(lp2483
sI2480
(lp2484
sI2481
(lp2485
sI2482
(lp2486
sI2483
(lp2487
sI2484
(lp2488
sI2485
(lp2489
sI2486
(lp2490
sI2487
(lp2491
sI2488
(lp2492
sI2489
(lp2493
sI2490
(lp2494
sI2491
(lp2495
sI2492
(lp2496
sI2493
(lp2497
sI2494
(lp2498
sI2495
(lp2499
sI2496
(lp2500
sI2497
(lp2501
sI2498
(lp2502
sI2499
(lp2503
sI2500
(lp2504
sI2501
(lp2505
sI2502
(lp2506
sI2503
(lp2507
sI2504
(lp2508
sI2505
(lp2509
sI2506
(lp2510
sI2507
(lp2511
sI2508
(lp2512
sI2509
(lp2513
sI2510
(lp2514
sI2511
(lp2515
sI2512
(lp2516
sI2513
(lp2517
sI2514
(lp2518
sI2515
(lp2519
sI2516
(lp2520
sI2517
(lp2521
sI2518
(lp2522
sI2519
(lp2523
sI2520
(lp2524
sI2521
(lp2525
sI2522
(lp2526
sI2523
(lp2527
sI2524
(lp2528
sI2525
(lp2529
sI2526
(lp2530
sI2527
(lp2531
sI2528
(lp2532
sI2529
(lp2533
sI2530
(lp2534
sI2531
(lp2535
sI2532
(lp2536
sI2533
(lp2537
sI2534
(lp2538
sI2535
(lp2539
sI2536
(lp2540
sI2537
(lp2541
sI2538
(lp2542
sI2539
(lp2543
sI2540
(lp2544
sI2541
(lp2545
sI2542
(lp2546
sI2543
(lp2547
sI2544
(lp2548
sI2545
(lp2549
sI2546
(lp2550
sI2547
(lp2551
sI2548
(lp2552
sI2549
(lp2553
sI2550
(lp2554
sI2551
(lp2555
sI2552
(lp2556
sI2553
(lp2557
sI2554
(lp2558
sI2555
(lp2559
sI2556
(lp2560
sI2557
(lp2561
sI2558
(lp2562
sI2559
(lp2563
sI2560
(lp2564
sI2561
(lp2565
sI2562
(lp2566
sI2563
(lp2567
sI2564
(lp2568
sI2565
(lp2569
sI2566
(lp2570
sI2567
(lp2571
sI2568
(lp2572
sI2569
(lp2573
sI2570
(lp2574
sI2571
(lp2575
sI2572
(lp2576
sI2573
(lp2577
sI2574
(lp2578
sI2575
(lp2579
sI2576
(lp2580
sI2577
(lp2581
sI2578
(lp2582
sI2579
(lp2583
sI2580
(lp2584
sI2581
(lp2585
sI2582
(lp2586
sI2583
(lp2587
sI2584
(lp2588
sI2585
(lp2589
sI2586
(lp2590
sI2587
(lp2591
sI2588
(lp2592
sI2589
(lp2593
sI2590
(lp2594
sI2591
(lp2595
sI2592
(lp2596
sI2593
(lp2597
sI2594
(lp2598
sI2595
(lp2599
sI2596
(lp2600
sI2597
(lp2601
sI2598
(lp2602
sI2599
(lp2603
sI2600
(lp2604
sI2601
(lp2605
sI2602
(lp2606
sI2603
(lp2607
sI2604
(lp2608
sI2605
(lp2609
sI2606
(lp2610
sI2607
(lp2611
sI2608
(lp2612
sI2609
(lp2613
sI2610
(lp2614
sI2611
(lp2615
sI2612
(lp2616
sI2613
(lp2617
sI2614
(lp2618
sI2615
(lp2619
sI2616
(lp2620
sI2617
(lp2621
sI2618
(lp2622
sI2619
(lp2623
sI2620
(lp2624
sI2621
(lp2625
sI2622
(lp2626
sI2623
(lp2627
sI2624
(lp2628
sI2625
(lp2629
sI2626
(lp2630
sI2627
(lp2631
sI2628
(lp2632
sI2629
(lp2633
sI2630
(lp2634
sI2631
(lp2635
sI2632
(lp2636
sI2633
(lp2637
sI2634
(lp2638
sI2635
(lp2639
sI2636
(lp2640
sI2637
(lp2641
sI2638
(lp2642
sI2639
(lp2643
sI2640
(lp2644
sI2641
(lp2645
sI2642
(lp2646
sI2643
(lp2647
sI2644
(lp2648
sI2645
(lp2649
sI2646
(lp2650
sI2647
(lp2651
sI2648
(lp2652
sI2649
(lp2653
sI2650
(lp2654
sI2651
(lp2655
sI2652
(lp2656
sI2653
(lp2657
sI2654
(lp2658
sI2655
(lp2659
sI2656
(lp2660
sI2657
(lp2661
sI2658
(lp2662
sI2659
(lp2663
sI2660
(lp2664
sI2661
(lp2665
sI2662
(lp2666
sI2663
(lp2667
sI2664
(lp2668
sI2665
(lp2669
sI2666
(lp2670
sI2667
(lp2671
sI2668
(lp2672
sI2669
(lp2673
sI2670
(lp2674
sI2671
(lp2675
sI2672
(lp2676
sI2673
(lp2677
sI2674
(lp2678
sI2675
(lp2679
sI2676
(lp2680
sI2677
(lp2681
sI2678
(lp2682
sI2679
(lp2683
sI2680
(lp2684
sI2681
(lp2685
sI2682
(lp2686
sI2683
(lp2687
sI2684
(lp2688
sI2685
(lp2689
sI2686
(lp2690
sI2687
(lp2691
sI2688
(lp2692
sI2689
(lp2693
sI2690
(lp2694
sI2691
(lp2695
sI2692
(lp2696
sI2693
(lp2697
sI2694
(lp2698
sI2695
(lp2699
sI2696
(lp2700
sI2697
(lp2701
sI2698
(lp2702
sI2699
(lp2703
sI2700
(lp2704
sI2701
(lp2705
sI2702
(lp2706
sI2703
(lp2707
sI2704
(lp2708
sI2705
(lp2709
sI2706
(lp2710
sI2707
(lp2711
sI2708
(lp2712
sI2709
(lp2713
sI2710
(lp2714
sI2711
(lp2715
sI2712
(lp2716
sI2713
(lp2717
sI2714
(lp2718
sI2715
(lp2719
sI2716
(lp2720
sI2717
(lp2721
sI2718
(lp2722
sI2719
(lp2723
sI2720
(lp2724
sI2721
(lp2725
sI2722
(lp2726
sI2723
(lp2727
sI2724
(lp2728
sI2725
(lp2729
sI2726
(lp2730
sI2727
(lp2731
sI2728
(lp2732
sI2729
(lp2733
sI2730
(lp2734
sI2731
(lp2735
sI2732
(lp2736
sI2733
(lp2737
sI2734
(lp2738
sI2735
(lp2739
sI2736
(lp2740
sI2737
(lp2741
sI2738
(lp2742
sI2739
(lp2743
sI2740
(lp2744
sI2741
(lp2745
sI2742
(lp2746
sI2743
(lp2747
sI2744
(lp2748
sI2745
(lp2749
sI2746
(lp2750
sI2747
(lp2751
sI2748
(lp2752
sI2749
(lp2753
sI2750
(lp2754
sI2751
(lp2755
sI2752
(lp2756
sI2753
(lp2757
sI2754
(lp2758
sI2755
(lp2759
sI2756
(lp2760
sI2757
(lp2761
sI2758
(lp2762
sI2759
(lp2763
sI2760
(lp2764
sI2761
(lp2765
sI2762
(lp2766
sI2763
(lp2767
sI2764
(lp2768
sI2765
(lp2769
sI2766
(lp2770
sI2767
(lp2771
sI2768
(lp2772
sI2769
(lp2773
sI2770
(lp2774
sI2771
(lp2775
sI2772
(lp2776
sI2773
(lp2777
sI2774
(lp2778
sI2775
(lp2779
sI2776
(lp2780
sI2777
(lp2781
sI2778
(lp2782
sI2779
(lp2783
sI2780
(lp2784
sI2781
(lp2785
sI2782
(lp2786
sI2783
(lp2787
sI2784
(lp2788
sI2785
(lp2789
sI2786
(lp2790
sI2787
(lp2791
sI2788
(lp2792
sI2789
(lp2793
sI2790
(lp2794
sI2791
(lp2795
sI2792
(lp2796
sI2793
(lp2797
sI2794
(lp2798
sI2795
(lp2799
sI2796
(lp2800
sI2797
(lp2801
sI2798
(lp2802
sI2799
(lp2803
sI2800
(lp2804
sI2801
(lp2805
sI2802
(lp2806
sI2803
(lp2807
sI2804
(lp2808
sI2805
(lp2809
sI2806
(lp2810
sI2807
(lp2811
sI2808
(lp2812
sI2809
(lp2813
sI2810
(lp2814
sI2811
(lp2815
sI2812
(lp2816
sI2813
(lp2817
sI2814
(lp2818
sI2815
(lp2819
sI2816
(lp2820
sI2817
(lp2821
sI2818
(lp2822
sI2819
(lp2823
sI2820
(lp2824
sI2821
(lp2825
sI2822
(lp2826
sI2823
(lp2827
sI2824
(lp2828
sI2825
(lp2829
sI2826
(lp2830
sI2827
(lp2831
sI2828
(lp2832
sI2829
(lp2833
sI2830
(lp2834
sI2831
(lp2835
sI2832
(lp2836
sI2833
(lp2837
sI2834
(lp2838
sI2835
(lp2839
sI2836
(lp2840
sI2837
(lp2841
sI2838
(lp2842
sI2839
(lp2843
sI2840
(lp2844
sI2841
(lp2845
sI2842
(lp2846
sI2843
(lp2847
sI2844
(lp2848
sI2845
(lp2849
sI2846
(lp2850
sI2847
(lp2851
sI2848
(lp2852
sI2849
(lp2853
sI2850
(lp2854
sI2851
(lp2855
sI2852
(lp2856
sI2853
(lp2857
sI2854
(lp2858
sI2855
(lp2859
sI2856
(lp2860
sI2857
(lp2861
sI2858
(lp2862
sI2859
(lp2863
sI2860
(lp2864
sI2861
(lp2865
sI2862
(lp2866
sI2863
(lp2867
sI2864
(lp2868
sI2865
(lp2869
sI2866
(lp2870
sI2867
(lp2871
sI2868
(lp2872
sI2869
(lp2873
sI2870
(lp2874
sI2871
(lp2875
sI2872
(lp2876
sI2873
(lp2877
sI2874
(lp2878
sI2875
(lp2879
sI2876
(lp2880
sI2877
(lp2881
sI2878
(lp2882
sI2879
(lp2883
sI2880
(lp2884
sI2881
(lp2885
sI2882
(lp2886
sI2883
(lp2887
sI2884
(lp2888
sI2885
(lp2889
sI2886
(lp2890
sI2887
(lp2891
sI2888
(lp2892
sI2889
(lp2893
sI2890
(lp2894
sI2891
(lp2895
sI2892
(lp2896
sI2893
(lp2897
sI2894
(lp2898
sI2895
(lp2899
sI2896
(lp2900
sI2897
(lp2901
sI2898
(lp2902
sI2899
(lp2903
sI2900
(lp2904
sI2901
(lp2905
sI2902
(lp2906
sI2903
(lp2907
sI2904
(lp2908
sI2905
(lp2909
sI2906
(lp2910
sI2907
(lp2911
sI2908
(lp2912
sI2909
(lp2913
sI2910
(lp2914
sI2911
(lp2915
sI2912
(lp2916
sI2913
(lp2917
sI2914
(lp2918
sI2915
(lp2919
sI2916
(lp2920
sI2917
(lp2921
sI2918
(lp2922
sI2919
(lp2923
sI2920
(lp2924
sI2921
(lp2925
sI2922
(lp2926
sI2923
(lp2927
sI2924
(lp2928
sI2925
(lp2929
sI2926
(lp2930
sI2927
(lp2931
sI2928
(lp2932
sI2929
(lp2933
sI2930
(lp2934
sI2931
(lp2935
sI2932
(lp2936
sI2933
(lp2937
sI2934
(lp2938
sI2935
(lp2939
sI2936
(lp2940
sI2937
(lp2941
sI2938
(lp2942
sI2939
(lp2943
sI2940
(lp2944
sI2941
(lp2945
sI2942
(lp2946
sI2943
(lp2947
sI2944
(lp2948
sI2945
(lp2949
sI2946
(lp2950
sI2947
(lp2951
sI2948
(lp2952
sI2949
(lp2953
sI2950
(lp2954
sI2951
(lp2955
sI2952
(lp2956
sI2953
(lp2957
sI2954
(lp2958
sI2955
(lp2959
sI2956
(lp2960
sI2957
(lp2961
sI2958
(lp2962
sI2959
(lp2963
sI2960
(lp2964
sI2961
(lp2965
sI2962
(lp2966
sI2963
(lp2967
sI2964
(lp2968
sI2965
(lp2969
sI2966
(lp2970
sI2967
(lp2971
sI2968
(lp2972
sI2969
(lp2973
sI2970
(lp2974
sI2971
(lp2975
sI2972
(lp2976
sI2973
(lp2977
sI2974
(lp2978
sI2975
(lp2979
sI2976
(lp2980
sI2977
(lp2981
sI2978
(lp2982
sI2979
(lp2983
sI2980
(lp2984
sI2981
(lp2985
sI2982
(lp2986
sI2983
(lp2987
sI2984
(lp2988
sI2985
(lp2989
sI2986
(lp2990
sI2987
(lp2991
sI2988
(lp2992
sI2989
(lp2993
sI2990
(lp2994
sI2991
(lp2995
sI2992
(lp2996
sI2993
(lp2997
sI2994
(lp2998
sI2995
(lp2999
sI2996
(lp3000
sI2997
(lp3001
sI2998
(lp3002
sI2999
(lp3003
sI3000
(lp3004
sI3001
(lp3005
sI3002
(lp3006
sI3003
(lp3007
sI3004
(lp3008
sI3005
(lp3009
sI3006
(lp3010
sI3007
(lp3011
sI3008
(lp3012
sI3009
(lp3013
sI3010
(lp3014
sI3011
(lp3015
sI3012
(lp3016
sI3013
(lp3017
sI3014
(lp3018
sI3015
(lp3019
sI3016
(lp3020
sI3017
(lp3021
sI3018
(lp3022
sI3019
(lp3023
sI3020
(lp3024
sI3021
(lp3025
sI3022
(lp3026
sI3023
(lp3027
sI3024
(lp3028
sI3025
(lp3029
sI3026
(lp3030
sI3027
(lp3031
sI3028
(lp3032
sI3029
(lp3033
sI3030
(lp3034
sI3031
(lp3035
sI3032
(lp3036
sI3033
(lp3037
sI3034
(lp3038
sI3035
(lp3039
sI3036
(lp3040
sI3037
(lp3041
sI3038
(lp3042
sI3039
(lp3043
sI3040
(lp3044
sI3041
(lp3045
sI3042
(lp3046
sI3043
(lp3047
sI3044
(lp3048
sI3045
(lp3049
sI3046
(lp3050
sI3047
(lp3051
sI3048
(lp3052
sI3049
(lp3053
sI3050
(lp3054
sI3051
(lp3055
sI3052
(lp3056
sI3053
(lp3057
sI3054
(lp3058
sI3055
(lp3059
sI3056
(lp3060
sI3057
(lp3061
sI3058
(lp3062
sI3059
(lp3063
sI3060
(lp3064
sI3061
(lp3065
sI3062
(lp3066
sI3063
(lp3067
sI3064
(lp3068
sI3065
(lp3069
sI3066
(lp3070
sI3067
(lp3071
sI3068
(lp3072
sI3069
(lp3073
sI3070
(lp3074
sI3071
(lp3075
sI3072
(lp3076
sI3073
(lp3077
sI3074
(lp3078
sI3075
(lp3079
sI3076
(lp3080
sI3077
(lp3081
sI3078
(lp3082
sI3079
(lp3083
sI3080
(lp3084
sI3081
(lp3085
sI3082
(lp3086
sI3083
(lp3087
sI3084
(lp3088
sI3085
(lp3089
sI3086
(lp3090
sI3087
(lp3091
sI3088
(lp3092
sI3089
(lp3093
sI3090
(lp3094
sI3091
(lp3095
sI3092
(lp3096
sI3093
(lp3097
sI3094
(lp3098
sI3095
(lp3099
sI3096
(lp3100
sI3097
(lp3101
sI3098
(lp3102
sI3099
(lp3103
sI3100
(lp3104
sI3101
(lp3105
sI3102
(lp3106
sI3103
(lp3107
sI3104
(lp3108
sI3105
(lp3109
sI3106
(lp3110
sI3107
(lp3111
sI3108
(lp3112
sI3109
(lp3113
sI3110
(lp3114
sI3111
(lp3115
sI3112
(lp3116
sI3113
(lp3117
sI3114
(lp3118
sI3115
(lp3119
sI3116
(lp3120
sI3117
(lp3121
sI3118
(lp3122
sI3119
(lp3123
sI3120
(lp3124
sI3121
(lp3125
sI3122
(lp3126
sI3123
(lp3127
sI3124
(lp3128
sI3125
(lp3129
sI3126
(lp3130
sI3127
(lp3131
sI3128
(lp3132
sI3129
(lp3133
sI3130
(lp3134
sI3131
(lp3135
sI3132
(lp3136
sI3133
(lp3137
sI3134
(lp3138
sI3135
(lp3139
sI3136
(lp3140
sI3137
(lp3141
sI3138
(lp3142
sI3139
(lp3143
sI3140
(lp3144
sI3141
(lp3145
sI3142
(lp3146
sI3143
(lp3147
sI3144
(lp3148
sI3145
(lp3149
sI3146
(lp3150
sI3147
(lp3151
sI3148
(lp3152
sI3149
(lp3153
sI3150
(lp3154
sI3151
(lp3155
sI3152
(lp3156
sI3153
(lp3157
sI3154
(lp3158
sI3155
(lp3159
sI3156
(lp3160
sI3157
(lp3161
sI3158
(lp3162
sI3159
(lp3163
sI3160
(lp3164
sI3161
(lp3165
sI3162
(lp3166
sI3163
(lp3167
sI3164
(lp3168
sI3165
(lp3169
sI3166
(lp3170
sI3167
(lp3171
sI3168
(lp3172
sI3169
(lp3173
sI3170
(lp3174
sI3171
(lp3175
sI3172
(lp3176
sI3173
(lp3177
sI3174
(lp3178
sI3175
(lp3179
sI3176
(lp3180
sI3177
(lp3181
sI3178
(lp3182
sI3179
(lp3183
sI3180
(lp3184
sI3181
(lp3185
sI3182
(lp3186
sI3183
(lp3187
sI3184
(lp3188
sI3185
(lp3189
sI3186
(lp3190
sI3187
(lp3191
sI3188
(lp3192
sI3189
(lp3193
sI3190
(lp3194
sI3191
(lp3195
sI3192
(lp3196
sI3193
(lp3197
sI3194
(lp3198
sI3195
(lp3199
sI3196
(lp3200
sI3197
(lp3201
sI3198
(lp3202
sI3199
(lp3203
sI3200
(lp3204
sI3201
(lp3205
sI3202
(lp3206
sI3203
(lp3207
sI3204
(lp3208
sI3205
(lp3209
sI3206
(lp3210
sI3207
(lp3211
sI3208
(lp3212
sI3209
(lp3213
sI3210
(lp3214
sI3211
(lp3215
sI3212
(lp3216
sI3213
(lp3217
sI3214
(lp3218
sI3215
(lp3219
sI3216
(lp3220
sI3217
(lp3221
sI3218
(lp3222
sI3219
(lp3223
sI3220
(lp3224
sI3221
(lp3225
sI3222
(lp3226
sI3223
(lp3227
sI3224
(lp3228
sI3225
(lp3229
sI3226
(lp3230
sI3227
(lp3231
sI3228
(lp3232
sI3229
(lp3233
sI3230
(lp3234
sI3231
(lp3235
sI3232
(lp3236
sI3233
(lp3237
sI3234
(lp3238
sI3235
(lp3239
sI3236
(lp3240
sI3237
(lp3241
sI3238
(lp3242
sI3239
(lp3243
sI3240
(lp3244
sI3241
(lp3245
sI3242
(lp3246
sI3243
(lp3247
sI3244
(lp3248
sI3245
(lp3249
sI3246
(lp3250
sI3247
(lp3251
sI3248
(lp3252
sI3249
(lp3253
sI3250
(lp3254
sI3251
(lp3255
sI3252
(lp3256
sI3253
(lp3257
sI3254
(lp3258
sI3255
(lp3259
sI3256
(lp3260
sI3257
(lp3261
sI3258
(lp3262
sI3259
(lp3263
sI3260
(lp3264
sI3261
(lp3265
sI3262
(lp3266
sI3263
(lp3267
sI3264
(lp3268
sI3265
(lp3269
sI3266
(lp3270
sI3267
(lp3271
sI3268
(lp3272
sI3269
(lp3273
sI3270
(lp3274
sI3271
(lp3275
sI3272
(lp3276
sI3273
(lp3277
sI3274
(lp3278
sI3275
(lp3279
sI3276
(lp3280
sI3277
(lp3281
sI3278
(lp3282
sI3279
(lp3283
sI3280
(lp3284
sI3281
(lp3285
sI3282
(lp3286
sI3283
(lp3287
sI3284
(lp3288
sI3285
(lp3289
sI3286
(lp3290
sI3287
(lp3291
sI3288
(lp3292
sI3289
(lp3293
sI3290
(lp3294
sI3291
(lp3295
sI3292
(lp3296
sI3293
(lp3297
sI3294
(lp3298
sI3295
(lp3299
sI3296
(lp3300
sI3297
(lp3301
sI3298
(lp3302
sI3299
(lp3303
sI3300
(lp3304
sI3301
(lp3305
sI3302
(lp3306
sI3303
(lp3307
sI3304
(lp3308
sI3305
(lp3309
sI3306
(lp3310
sI3307
(lp3311
sI3308
(lp3312
sI3309
(lp3313
sI3310
(lp3314
sI3311
(lp3315
sI3312
(lp3316
sI3313
(lp3317
sI3314
(lp3318
sI3315
(lp3319
sI3316
(lp3320
sI3317
(lp3321
sI3318
(lp3322
sI3319
(lp3323
sI3320
(lp3324
sI3321
(lp3325
sI3322
(lp3326
sI3323
(lp3327
sI3324
(lp3328
sI3325
(lp3329
sI3326
(lp3330
sI3327
(lp3331
sI3328
(lp3332
sI3329
(lp3333
sI3330
(lp3334
sI3331
(lp3335
sI3332
(lp3336
sI3333
(lp3337
sI3334
(lp3338
sI3335
(lp3339
sI3336
(lp3340
sI3337
(lp3341
sI3338
(lp3342
sI3339
(lp3343
sI3340
(lp3344
sI3341
(lp3345
sI3342
(lp3346
sI3343
(lp3347
sI3344
(lp3348
sI3345
(lp3349
sI3346
(lp3350
sI3347
(lp3351
sI3348
(lp3352
sI3349
(lp3353
sI3350
(lp3354
sI3351
(lp3355
sI3352
(lp3356
sI3353
(lp3357
sI3354
(lp3358
sI3355
(lp3359
sI3356
(lp3360
sI3357
(lp3361
sI3358
(lp3362
sI3359
(lp3363
sI3360
(lp3364
sI3361
(lp3365
sI3362
(lp3366
sI3363
(lp3367
sI3364
(lp3368
sI3365
(lp3369
sI3366
(lp3370
sI3367
(lp3371
sI3368
(lp3372
sI3369
(lp3373
sI3370
(lp3374
sI3371
(lp3375
sI3372
(lp3376
sI3373
(lp3377
sI3374
(lp3378
sI3375
(lp3379
sI3376
(lp3380
sI3377
(lp3381
sI3378
(lp3382
sI3379
(lp3383
sI3380
(lp3384
sI3381
(lp3385
sI3382
(lp3386
sI3383
(lp3387
sI3384
(lp3388
sI3385
(lp3389
sI3386
(lp3390
sI3387
(lp3391
sI3388
(lp3392
sI3389
(lp3393
sI3390
(lp3394
sI3391
(lp3395
sI3392
(lp3396
sI3393
(lp3397
sI3394
(lp3398
sI3395
(lp3399
sI3396
(lp3400
sI3397
(lp3401
sI3398
(lp3402
sI3399
(lp3403
sI3400
(lp3404
sI3401
(lp3405
sI3402
(lp3406
sI3403
(lp3407
sI3404
(lp3408
sI3405
(lp3409
sI3406
(lp3410
sI3407
(lp3411
sI3408
(lp3412
sI3409
(lp3413
sI3410
(lp3414
sI3411
(lp3415
sI3412
(lp3416
sI3413
(lp3417
sI3414
(lp3418
sI3415
(lp3419
sI3416
(lp3420
sI3417
(lp3421
sI3418
(lp3422
sI3419
(lp3423
sI3420
(lp3424
sI3421
(lp3425
sI3422
(lp3426
sI3423
(lp3427
sI3424
(lp3428
sI3425
(lp3429
sI3426
(lp3430
sI3427
(lp3431
sI3428
(lp3432
sI3429
(lp3433
sI3430
(lp3434
sI3431
(lp3435
sI3432
(lp3436
sI3433
(lp3437
sI3434
(lp3438
sI3435
(lp3439
sI3436
(lp3440
sI3437
(lp3441
sI3438
(lp3442
sI3439
(lp3443
sI3440
(lp3444
sI3441
(lp3445
sI3442
(lp3446
sI3443
(lp3447
sI3444
(lp3448
sI3445
(lp3449
sI3446
(lp3450
sI3447
(lp3451
sI3448
(lp3452
sI3449
(lp3453
sI3450
(lp3454
sI3451
(lp3455
sI3452
(lp3456
sI3453
(lp3457
sI3454
(lp3458
sI3455
(lp3459
sI3456
(lp3460
sI3457
(lp3461
sI3458
(lp3462
sI3459
(lp3463
sI3460
(lp3464
sI3461
(lp3465
sI3462
(lp3466
sI3463
(lp3467
sI3464
(lp3468
sI3465
(lp3469
sI3466
(lp3470
sI3467
(lp3471
sI3468
(lp3472
sI3469
(lp3473
sI3470
(lp3474
sI3471
(lp3475
sI3472
(lp3476
sI3473
(lp3477
sI3474
(lp3478
sI3475
(lp3479
sI3476
(lp3480
sI3477
(lp3481
sI3478
(lp3482
sI3479
(lp3483
sI3480
(lp3484
sI3481
(lp3485
sI3482
(lp3486
sI3483
(lp3487
sI3484
(lp3488
sI3485
(lp3489
sI3486
(lp3490
sI3487
(lp3491
sI3488
(lp3492
sI3489
(lp3493
sI3490
(lp3494
sI3491
(lp3495
sI3492
(lp3496
sI3493
(lp3497
sI3494
(lp3498
sI3495
(lp3499
sI3496
(lp3500
sI3497
(lp3501
sI3498
(lp3502
sI3499
(lp3503
sI3500
(lp3504
sI3501
(lp3505
sI3502
(lp3506
sI3503
(lp3507
sI3504
(lp3508
sI3505
(lp3509
sI3506
(lp3510
sI3507
(lp3511
sI3508
(lp3512
sI3509
(lp3513
sI3510
(lp3514
sI3511
(lp3515
sI3512
(lp3516
sI3513
(lp3517
sI3514
(lp3518
sI3515
(lp3519
sI3516
(lp3520
sI3517
(lp3521
sI3518
(lp3522
sI3519
(lp3523
sI3520
(lp3524
sI3521
(lp3525
sI3522
(lp3526
sI3523
(lp3527
sI3524
(lp3528
sI3525
(lp3529
sI3526
(lp3530
sI3527
(lp3531
sI3528
(lp3532
sI3529
(lp3533
sI3530
(lp3534
sI3531
(lp3535
sI3532
(lp3536
sI3533
(lp3537
sI3534
(lp3538
sI3535
(lp3539
sI3536
(lp3540
sI3537
(lp3541
sI3538
(lp3542
sI3539
(lp3543
sI3540
(lp3544
sI3541
(lp3545
sI3542
(lp3546
sI3543
(lp3547
sI3544
(lp3548
sI3545
(lp3549
sI3546
(lp3550
sI3547
(lp3551
sI3548
(lp3552
sI3549
(lp3553
sI3550
(lp3554
sI3551
(lp3555
sI3552
(lp3556
sI3553
(lp3557
sI3554
(lp3558
sI3555
(lp3559
sI3556
(lp3560
sI3557
(lp3561
sI3558
(lp3562
sI3559
(lp3563
sI3560
(lp3564
sI3561
(lp3565
sI3562
(lp3566
sI3563
(lp3567
sI3564
(lp3568
sI3565
(lp3569
sI3566
(lp3570
sI3567
(lp3571
sI3568
(lp3572
sI3569
(lp3573
sI3570
(lp3574
sI3571
(lp3575
sI3572
(lp3576
sI3573
(lp3577
sI3574
(lp3578
sI3575
(lp3579
sI3576
(lp3580
sI3577
(lp3581
sI3578
(lp3582
sI3579
(lp3583
sI3580
(lp3584
sI3581
(lp3585
sI3582
(lp3586
sI3583
(lp3587
sI3584
(lp3588
sI3585
(lp3589
sI3586
(lp3590
sI3587
(lp3591
sI3588
(lp3592
sI3589
(lp3593
sI3590
(lp3594
sI3591
(lp3595
sI3592
(lp3596
sI3593
(lp3597
sI3594
(lp3598
sI3595
(lp3599
sI3596
(lp3600
sI3597
(lp3601
sI3598
(lp3602
sI3599
(lp3603
sI3600
(lp3604
sI3601
(lp3605
sI3602
(lp3606
sI3603
(lp3607
sI3604
(lp3608
sI3605
(lp3609
sI3606
(lp3610
sI3607
(lp3611
sI3608
(lp3612
sI3609
(lp3613
sI3610
(lp3614
sI3611
(lp3615
sI3612
(lp3616
sI3613
(lp3617
sI3614
(lp3618
sI3615
(lp3619
sI3616
(lp3620
sI3617
(lp3621
sI3618
(lp3622
sI3619
(lp3623
sI3620
(lp3624
sI3621
(lp3625
sI3622
(lp3626
sI3623
(lp3627
sI3624
(lp3628
sI3625
(lp3629
sI3626
(lp3630
sI3627
(lp3631
sI3628
(lp3632
sI3629
(lp3633
sI3630
(lp3634
sI3631
(lp3635
sI3632
(lp3636
sI3633
(lp3637
sI3634
(lp3638
sI3635
(lp3639
sI3636
(lp3640
sI3637
(lp3641
sI3638
(lp3642
sI3639
(lp3643
sI3640
(lp3644
sI3641
(lp3645
sI3642
(lp3646
sI3643
(lp3647
sI3644
(lp3648
sI3645
(lp3649
sI3646
(lp3650
sI3647
(lp3651
sI3648
(lp3652
sI3649
(lp3653
sI3650
(lp3654
sI3651
(lp3655
sI3652
(lp3656
sI3653
(lp3657
sI3654
(lp3658
sI3655
(lp3659
sI3656
(lp3660
sI3657
(lp3661
sI3658
(lp3662
sI3659
(lp3663
sI3660
(lp3664
sI3661
(lp3665
sI3662
(lp3666
sI3663
(lp3667
sI3664
(lp3668
sI3665
(lp3669
sI3666
(lp3670
sI3667
(lp3671
sI3668
(lp3672
sI3669
(lp3673
sI3670
(lp3674
sI3671
(lp3675
sI3672
(lp3676
sI3673
(lp3677
sI3674
(lp3678
sI3675
(lp3679
sI3676
(lp3680
sI3677
(lp3681
sI3678
(lp3682
sI3679
(lp3683
sI3680
(lp3684
sI3681
(lp3685
sI3682
(lp3686
sI3683
(lp3687
sI3684
(lp3688
sI3685
(lp3689
sI3686
(lp3690
sI3687
(lp3691
sI3688
(lp3692
sI3689
(lp3693
sI3690
(lp3694
sI3691
(lp3695
sI3692
(lp3696
sI3693
(lp3697
sI3694
(lp3698
sI3695
(lp3699
sI3696
(lp3700
sI3697
(lp3701
sI3698
(lp3702
sI3699
(lp3703
sI3700
(lp3704
sI3701
(lp3705
sI3702
(lp3706
sI3703
(lp3707
sI3704
(lp3708
sI3705
(lp3709
sI3706
(lp3710
sI3707
(lp3711
sI3708
(lp3712
sI3709
(lp3713
sI3710
(lp3714
sI3711
(lp3715
sI3712
(lp3716
sI3713
(lp3717
sI3714
(lp3718
sI3715
(lp3719
sI3716
(lp3720
sI3717
(lp3721
sI3718
(lp3722
sI3719
(lp3723
sI3720
(lp3724
sI3721
(lp3725
sI3722
(lp3726
sI3723
(lp3727
sI3724
(lp3728
sI3725
(lp3729
sI3726
(lp3730
sI3727
(lp3731
sI3728
(lp3732
sI3729
(lp3733
sI3730
(lp3734
sI3731
(lp3735
sI3732
(lp3736
sI3733
(lp3737
sI3734
(lp3738
sI3735
(lp3739
sI3736
(lp3740
sI3737
(lp3741
sI3738
(lp3742
sI3739
(lp3743
sI3740
(lp3744
sI3741
(lp3745
sI3742
(lp3746
sI3743
(lp3747
sI3744
(lp3748
sI3745
(lp3749
sI3746
(lp3750
sI3747
(lp3751
sI3748
(lp3752
sI3749
(lp3753
sI3750
(lp3754
sI3751
(lp3755
sI3752
(lp3756
sI3753
(lp3757
sI3754
(lp3758
sI3755
(lp3759
sI3756
(lp3760
sI3757
(lp3761
sI3758
(lp3762
sI3759
(lp3763
sI3760
(lp3764
sI3761
(lp3765
sI3762
(lp3766
sI3763
(lp3767
sI3764
(lp3768
sI3765
(lp3769
sI3766
(lp3770
sI3767
(lp3771
sI3768
(lp3772
sI3769
(lp3773
sI3770
(lp3774
sI3771
(lp3775
sI3772
(lp3776
sI3773
(lp3777
sI3774
(lp3778
sI3775
(lp3779
sI3776
(lp3780
sI3777
(lp3781
sI3778
(lp3782
sI3779
(lp3783
sI3780
(lp3784
sI3781
(lp3785
sI3782
(lp3786
sI3783
(lp3787
sI3784
(lp3788
sI3785
(lp3789
sI3786
(lp3790
sI3787
(lp3791
sI3788
(lp3792
sI3789
(lp3793
sI3790
(lp3794
sI3791
(lp3795
sI3792
(lp3796
sI3793
(lp3797
sI3794
(lp3798
sI3795
(lp3799
sI3796
(lp3800
sI3797
(lp3801
sI3798
(lp3802
sI3799
(lp3803
sI3800
(lp3804
sI3801
(lp3805
sI3802
(lp3806
sI3803
(lp3807
sI3804
(lp3808
sI3805
(lp3809
sI3806
(lp3810
sI3807
(lp3811
sI3808
(lp3812
sI3809
(lp3813
sI3810
(lp3814
sI3811
(lp3815
sI3812
(lp3816
sI3813
(lp3817
sI3814
(lp3818
sI3815
(lp3819
sI3816
(lp3820
sI3817
(lp3821
sI3818
(lp3822
sI3819
(lp3823
sI3820
(lp3824
sI3821
(lp3825
sI3822
(lp3826
sI3823
(lp3827
sI3824
(lp3828
sI3825
(lp3829
sI3826
(lp3830
sI3827
(lp3831
sI3828
(lp3832
sI3829
(lp3833
sI3830
(lp3834
sI3831
(lp3835
sI3832
(lp3836
sI3833
(lp3837
sI3834
(lp3838
sI3835
(lp3839
sI3836
(lp3840
sI3837
(lp3841
sI3838
(lp3842
sI3839
(lp3843
sI3840
(lp3844
sI3841
(lp3845
sI3842
(lp3846
sI3843
(lp3847
sI3844
(lp3848
sI3845
(lp3849
sI3846
(lp3850
sI3847
(lp3851
sI3848
(lp3852
sI3849
(lp3853
sI3850
(lp3854
sI3851
(lp3855
sI3852
(lp3856
sI3853
(lp3857
sI3854
(lp3858
sI3855
(lp3859
sI3856
(lp3860
sI3857
(lp3861
sI3858
(lp3862
sI3859
(lp3863
sI3860
(lp3864
sI3861
(lp3865
sI3862
(lp3866
sI3863
(lp3867
sI3864
(lp3868
sI3865
(lp3869
sI3866
(lp3870
sI3867
(lp3871
sI3868
(lp3872
sI3869
(lp3873
sI3870
(lp3874
sI3871
(lp3875
sI3872
(lp3876
sI3873
(lp3877
sI3874
(lp3878
sI3875
(lp3879
sI3876
(lp3880
sI3877
(lp3881
sI3878
(lp3882
sI3879
(lp3883
sI3880
(lp3884
sI3881
(lp3885
sI3882
(lp3886
sI3883
(lp3887
sI3884
(lp3888
sI3885
(lp3889
sI3886
(lp3890
sI3887
(lp3891
sI3888
(lp3892
sI3889
(lp3893
sI3890
(lp3894
sI3891
(lp3895
sI3892
(lp3896
sI3893
(lp3897
sI3894
(lp3898
sI3895
(lp3899
sI3896
(lp3900
sI3897
(lp3901
sI3898
(lp3902
sI3899
(lp3903
sI3900
(lp3904
sI3901
(lp3905
sI3902
(lp3906
sI3903
(lp3907
sI3904
(lp3908
sI3905
(lp3909
sI3906
(lp3910
sI3907
(lp3911
sI3908
(lp3912
sI3909
(lp3913
sI3910
(lp3914
sI3911
(lp3915
sI3912
(lp3916
sI3913
(lp3917
sI3914
(lp3918
sI3915
(lp3919
sI3916
(lp3920
sI3917
(lp3921
sI3918
(lp3922
sI3919
(lp3923
sI3920
(lp3924
sI3921
(lp3925
sI3922
(lp3926
sI3923
(lp3927
sI3924
(lp3928
sI3925
(lp3929
sI3926
(lp3930
sI3927
(lp3931
sI3928
(lp3932
sI3929
(lp3933
sI3930
(lp3934
sI3931
(lp3935
sI3932
(lp3936
sI3933
(lp3937
sI3934
(lp3938
sI3935
(lp3939
sI3936
(lp3940
sI3937
(lp3941
sI3938
(lp3942
sI3939
(lp3943
sI3940
(lp3944
sI3941
(lp3945
sI3942
(lp3946
sI3943
(lp3947
sI3944
(lp3948
sI3945
(lp3949
sI3946
(lp3950
sI3947
(lp3951
sI3948
(lp3952
sI3949
(lp3953
sI3950
(lp3954
sI3951
(lp3955
sI3952
(lp3956
sI3953
(lp3957
sI3954
(lp3958
sI3955
(lp3959
sI3956
(lp3960
sI3957
(lp3961
sI3958
(lp3962
sI3959
(lp3963
sI3960
(lp3964
sI3961
(lp3965
sI3962
(lp3966
sI3963
(lp3967
sI3964
(lp3968
sI3965
(lp3969
sI3966
(lp3970
sI3967
(lp3971
sI3968
(lp3972
sI3969
(lp3973
sI3970
(lp3974
sI3971
(lp3975
sI3972
(lp3976
sI3973
(lp3977
sI3974
(lp3978
sI3975
(lp3979
sI3976
(lp3980
sI3977
(lp3981
sI3978
(lp3982
sI3979
(lp3983
sI3980
(lp3984
sI3981
(lp3985
sI3982
(lp3986
sI3983
(lp3987
sI3984
(lp3988
sI3985
(lp3989
sI3986
(lp3990
sI3987
(lp3991
sI3988
(lp3992
sI3989
(lp3993
sI3990
(lp3994
sI3991
(lp3995
sI3992
(lp3996
sI3993
(lp3997
sI3994
(lp3998
sI3995
(lp3999
sI3996
(lp4000
sI3997
(lp4001
sI3998
(lp4002
sI3999
(lp4003
sI4000
(lp4004
sI4001
(lp4005
sI4002
(lp4006
sI4003
(lp4007
sI4004
(lp4008
sI4005
(lp4009
sI4006
(lp4010
sI4007
(lp4011
sI4008
(lp4012
sI4009
(lp4013
sI4010
(lp4014
sI4011
(lp4015
sI4012
(lp4016
sI4013
(lp4017
sI4014
(lp4018
sI4015
(lp4019
sI4016
(lp4020
sI4017
(lp4021
sI4018
(lp4022
sI4019
(lp4023
sI4020
(lp4024
sI4021
(lp4025
sI4022
(lp4026
sI4023
(lp4027
sI4024
(lp4028
sI4025
(lp4029
sI4026
(lp4030
sI4027
(lp4031
sI4028
(lp4032
sI4029
(lp4033
sI4030
(lp4034
sI4031
(lp4035
sI4032
(lp4036
sI4033
(lp4037
sI4034
(lp4038
sI4035
(lp4039
sI4036
(lp4040
sI4037
(lp4041
sI4038
(lp4042
sI4039
(lp4043
sI4040
(lp4044
sI4041
(lp4045
sI4042
(lp4046
sI4043
(lp4047
sI4044
(lp4048
sI4045
(lp4049
sI4046
(lp4050
sI4047
(lp4051
sI4048
(lp4052
sI4049
(lp4053
sI4050
(lp4054
sI4051
(lp4055
sI4052
(lp4056
sI4053
(lp4057
sI4054
(lp4058
sI4055
(lp4059
sI4056
(lp4060
sI4057
(lp4061
sI4058
(lp4062
sI4059
(lp4063
sI4060
(lp4064
sI4061
(lp4065
sI4062
(lp4066
sI4063
(lp4067
sI4064
(lp4068
sI4065
(lp4069
sI4066
(lp4070
sI4067
(lp4071
sI4068
(lp4072
sI4069
(lp4073
sI4070
(lp4074
sI4071
(lp4075
sI4072
(lp4076
sI4073
(lp4077
sI4074
(lp4078
sI4075
(lp4079
sI4076
(lp4080
sI4077
(lp4081
sI4078
(lp4082
sI4079
(lp4083
sI4080
(lp4084
sI4081
(lp4085
sI4082
(lp4086
sI4083
(lp4087
sI4084
(lp4088
sI4085
(lp4089
sI4086
(lp4090
sI4087
(lp4091
sI4088
(lp4092
sI4089
(lp4093
sI4090
(lp4094
sI4091
(lp4095
sI4092
(lp4096
sI4093
(lp4097
sI4094
(lp4098
sI4095
(lp4099
sI4096
(lp4100
sI4097
(lp4101
sI4098
(lp4102
sI4099
(lp4103
sI4100
(lp4104
sI4101
(lp4105
sI4102
(lp4106
sI4103
(lp4107
sI4104
(lp4108
sI4105
(lp4109
sI4106
(lp4110
sI4107
(lp4111
sI4108
(lp4112
sI4109
(lp4113
sI4110
(lp4114
sI4111
(lp4115
sI4112
(lp4116
sI4113
(lp4117
sI4114
(lp4118
sI4115
(lp4119
sI4116
(lp4120
sI4117
(lp4121
sI4118
(lp4122
sI4119
(lp4123
sI4120
(lp4124
sI4121
(lp4125
sI4122
(lp4126
sI4123
(lp4127
sI4124
(lp4128
sI4125
(lp4129
sI4126
(lp4130
sI4127
(lp4131
sI4128
(lp4132
sI4129
(lp4133
sI4130
(lp4134
sI4131
(lp4135
sI4132
(lp4136
sI4133
(lp4137
sI4134
(lp4138
sI4135
(lp4139
sI4136
(lp4140
sI4137
(lp4141
sI4138
(lp4142
sI4139
(lp4143
sI4140
(lp4144
sI4141
(lp4145
sI4142
(lp4146
sI4143
(lp4147
sI4144
(lp4148
sI4145
(lp4149
sI4146
(lp4150
sI4147
(lp4151
sI4148
(lp4152
sI4149
(lp4153
sI4150
(lp4154
sI4151
(lp4155
sI4152
(lp4156
sI4153
(lp4157
sI4154
(lp4158
sI4155
(lp4159
sI4156
(lp4160
sI4157
(lp4161
sI4158
(lp4162
sI4159
(lp4163
sI4160
(lp4164
sI4161
(lp4165
sI4162
(lp4166
sI4163
(lp4167
sI4164
(lp4168
sI4165
(lp4169
sI4166
(lp4170
sI4167
(lp4171
sI4168
(lp4172
sI4169
(lp4173
sI4170
(lp4174
sI4171
(lp4175
sI4172
(lp4176
sI4173
(lp4177
sI4174
(lp4178
sI4175
(lp4179
sI4176
(lp4180
sI4177
(lp4181
sI4178
(lp4182
sI4179
(lp4183
sI4180
(lp4184
sI4181
(lp4185
sI4182
(lp4186
sI4183
(lp4187
sI4184
(lp4188
sI4185
(lp4189
sI4186
(lp4190
sI4187
(lp4191
sI4188
(lp4192
sI4189
(lp4193
sI4190
(lp4194
sI4191
(lp4195
sI4192
(lp4196
sI4193
(lp4197
sI4194
(lp4198
sI4195
(lp4199
sI4196
(lp4200
sI4197
(lp4201
sI4198
(lp4202
sI4199
(lp4203
sI4200
(lp4204
sI4201
(lp4205
sI4202
(lp4206
sI4203
(lp4207
sI4204
(lp4208
sI4205
(lp4209
sI4206
(lp4210
sI4207
(lp4211
sI4208
(lp4212
sI4209
(lp4213
sI4210
(lp4214
sI4211
(lp4215
sI4212
(lp4216
sI4213
(lp4217
sI4214
(lp4218
sI4215
(lp4219
sI4216
(lp4220
sI4217
(lp4221
sI4218
(lp4222
sI4219
(lp4223
sI4220
(lp4224
sI4221
(lp4225
sI4222
(lp4226
sI4223
(lp4227
sI4224
(lp4228
sI4225
(lp4229
sI4226
(lp4230
sI4227
(lp4231
sI4228
(lp4232
sI4229
(lp4233
sI4230
(lp4234
sI4231
(lp4235
sI4232
(lp4236
sI4233
(lp4237
sI4234
(lp4238
sI4235
(lp4239
sI4236
(lp4240
sI4237
(lp4241
sI4238
(lp4242
sI4239
(lp4243
sI4240
(lp4244
sI4241
(lp4245
sI4242
(lp4246
sI4243
(lp4247
sI4244
(lp4248
sI4245
(lp4249
sI4246
(lp4250
sI4247
(lp4251
sI4248
(lp4252
sI4249
(lp4253
sI4250
(lp4254
sI4251
(lp4255
sI4252
(lp4256
sI4253
(lp4257
sI4254
(lp4258
sI4255
(lp4259
sI4256
(lp4260
sI4257
(lp4261
sI4258
(lp4262
sI4259
(lp4263
sI4260
(lp4264
sI4261
(lp4265
sI4262
(lp4266
sI4263
(lp4267
sI4264
(lp4268
sI4265
(lp4269
sI4266
(lp4270
sI4267
(lp4271
sI4268
(lp4272
sI4269
(lp4273
sI4270
(lp4274
sI4271
(lp4275
sI4272
(lp4276
sI4273
(lp4277
sI4274
(lp4278
sI4275
(lp4279
sI4276
(lp4280
sI4277
(lp4281
sI4278
(lp4282
sI4279
(lp4283
sI4280
(lp4284
sI4281
(lp4285
sI4282
(lp4286
sI4283
(lp4287
sI4284
(lp4288
sI4285
(lp4289
sI4286
(lp4290
sI4287
(lp4291
sI4288
(lp4292
sI4289
(lp4293
sI4290
(lp4294
sI4291
(lp4295
sI4292
(lp4296
sI4293
(lp4297
sI4294
(lp4298
sI4295
(lp4299
sI4296
(lp4300
sI4297
(lp4301
sI4298
(lp4302
sI4299
(lp4303
sI4300
(lp4304
sI4301
(lp4305
sI4302
(lp4306
sI4303
(lp4307
sI4304
(lp4308
sI4305
(lp4309
sI4306
(lp4310
sI4307
(lp4311
sI4308
(lp4312
sI4309
(lp4313
sI4310
(lp4314
sI4311
(lp4315
sI4312
(lp4316
sI4313
(lp4317
sI4314
(lp4318
sI4315
(lp4319
sI4316
(lp4320
sI4317
(lp4321
sI4318
(lp4322
sI4319
(lp4323
sI4320
(lp4324
sI4321
(lp4325
sI4322
(lp4326
sI4323
(lp4327
sI4324
(lp4328
sI4325
(lp4329
sI4326
(lp4330
sI4327
(lp4331
sI4328
(lp4332
sI4329
(lp4333
sI4330
(lp4334
sI4331
(lp4335
sI4332
(lp4336
sI4333
(lp4337
sI4334
(lp4338
sI4335
(lp4339
sI4336
(lp4340
sI4337
(lp4341
sI4338
(lp4342
sI4339
(lp4343
sI4340
(lp4344
sI4341
(lp4345
sI4342
(lp4346
sI4343
(lp4347
sI4344
(lp4348
sI4345
(lp4349
sI4346
(lp4350
sI4347
(lp4351
sI4348
(lp4352
sI4349
(lp4353
sI4350
(lp4354
sI4351
(lp4355
sI4352
(lp4356
sI4353
(lp4357
sI4354
(lp4358
sI4355
(lp4359
sI4356
(lp4360
sI4357
(lp4361
sI4358
(lp4362
sI4359
(lp4363
sI4360
(lp4364
sI4361
(lp4365
sI4362
(lp4366
sI4363
(lp4367
sI4364
(lp4368
sI4365
(lp4369
sI4366
(lp4370
sI4367
(lp4371
sI4368
(lp4372
sI4369
(lp4373
sI4370
(lp4374
sI4371
(lp4375
sI4372
(lp4376
sI4373
(lp4377
sI4374
(lp4378
sI4375
(lp4379
sI4376
(lp4380
sI4377
(lp4381
sI4378
(lp4382
sI4379
(lp4383
sI4380
(lp4384
sI4381
(lp4385
sI4382
(lp4386
sI4383
(lp4387
sI4384
(lp4388
sI4385
(lp4389
sI4386
(lp4390
sI4387
(lp4391
sI4388
(lp4392
sI4389
(lp4393
sI4390
(lp4394
sI4391
(lp4395
sI4392
(lp4396
sI4393
(lp4397
sI4394
(lp4398
sI4395
(lp4399
sI4396
(lp4400
sI4397
(lp4401
sI4398
(lp4402
sI4399
(lp4403
sI4400
(lp4404
sI4401
(lp4405
sI4402
(lp4406
sI4403
(lp4407
sI4404
(lp4408
sI4405
(lp4409
sI4406
(lp4410
sI4407
(lp4411
sI4408
(lp4412
sI4409
(lp4413
sI4410
(lp4414
sI4411
(lp4415
sI4412
(lp4416
sI4413
(lp4417
sI4414
(lp4418
sI4415
(lp4419
sI4416
(lp4420
sI4417
(lp4421
sI4418
(lp4422
sI4419
(lp4423
sI4420
(lp4424
sI4421
(lp4425
sI4422
(lp4426
sI4423
(lp4427
sI4424
(lp4428
sI4425
(lp4429
sI4426
(lp4430
sI4427
(lp4431
sI4428
(lp4432
sI4429
(lp4433
sI4430
(lp4434
sI4431
(lp4435
sI4432
(lp4436
sI4433
(lp4437
sI4434
(lp4438
sI4435
(lp4439
sI4436
(lp4440
sI4437
(lp4441
sI4438
(lp4442
sI4439
(lp4443
sI4440
(lp4444
sI4441
(lp4445
sI4442
(lp4446
sI4443
(lp4447
sI4444
(lp4448
sI4445
(lp4449
sI4446
(lp4450
sI4447
(lp4451
sI4448
(lp4452
sI4449
(lp4453
sI4450
(lp4454
sI4451
(lp4455
sI4452
(lp4456
sI4453
(lp4457
sI4454
(lp4458
sI4455
(lp4459
sI4456
(lp4460
sI4457
(lp4461
sI4458
(lp4462
sI4459
(lp4463
sI4460
(lp4464
sI4461
(lp4465
sI4462
(lp4466
sI4463
(lp4467
sI4464
(lp4468
sI4465
(lp4469
sI4466
(lp4470
sI4467
(lp4471
sI4468
(lp4472
sI4469
(lp4473
sI4470
(lp4474
sI4471
(lp4475
sI4472
(lp4476
sI4473
(lp4477
sI4474
(lp4478
sI4475
(lp4479
sI4476
(lp4480
sI4477
(lp4481
sI4478
(lp4482
sI4479
(lp4483
sI4480
(lp4484
sI4481
(lp4485
sI4482
(lp4486
sI4483
(lp4487
sI4484
(lp4488
sI4485
(lp4489
sI4486
(lp4490
sI4487
(lp4491
sI4488
(lp4492
sI4489
(lp4493
sI4490
(lp4494
sI4491
(lp4495
sI4492
(lp4496
sI4493
(lp4497
sI4494
(lp4498
sI4495
(lp4499
sI4496
(lp4500
sI4497
(lp4501
sI4498
(lp4502
sI4499
(lp4503
sI4500
(lp4504
sI4501
(lp4505
sI4502
(lp4506
sI4503
(lp4507
sI4504
(lp4508
sI4505
(lp4509
sI4506
(lp4510
sI4507
(lp4511
sI4508
(lp4512
sI4509
(lp4513
sI4510
(lp4514
sI4511
(lp4515
sI4512
(lp4516
sI4513
(lp4517
sI4514
(lp4518
sI4515
(lp4519
sI4516
(lp4520
sI4517
(lp4521
sI4518
(lp4522
sI4519
(lp4523
sI4520
(lp4524
sI4521
(lp4525
sI4522
(lp4526
sI4523
(lp4527
sI4524
(lp4528
sI4525
(lp4529
sI4526
(lp4530
sI4527
(lp4531
sI4528
(lp4532
sI4529
(lp4533
sI4530
(lp4534
sI4531
(lp4535
sI4532
(lp4536
sI4533
(lp4537
sI4534
(lp4538
sI4535
(lp4539
sI4536
(lp4540
sI4537
(lp4541
sI4538
(lp4542
sI4539
(lp4543
sI4540
(lp4544
sI4541
(lp4545
sI4542
(lp4546
sI4543
(lp4547
sI4544
(lp4548
sI4545
(lp4549
sI4546
(lp4550
sI4547
(lp4551
sI4548
(lp4552
sI4549
(lp4553
sI4550
(lp4554
sI4551
(lp4555
sI4552
(lp4556
sI4553
(lp4557
sI4554
(lp4558
sI4555
(lp4559
sI4556
(lp4560
sI4557
(lp4561
sI4558
(lp4562
sI4559
(lp4563
sI4560
(lp4564
sI4561
(lp4565
sI4562
(lp4566
sI4563
(lp4567
sI4564
(lp4568
sI4565
(lp4569
sI4566
(lp4570
sI4567
(lp4571
sI4568
(lp4572
sI4569
(lp4573
sI4570
(lp4574
sI4571
(lp4575
sI4572
(lp4576
sI4573
(lp4577
sI4574
(lp4578
sI4575
(lp4579
sI4576
(lp4580
sI4577
(lp4581
sI4578
(lp4582
sI4579
(lp4583
sI4580
(lp4584
sI4581
(lp4585
sI4582
(lp4586
sI4583
(lp4587
sI4584
(lp4588
sI4585
(lp4589
sI4586
(lp4590
sI4587
(lp4591
sI4588
(lp4592
sI4589
(lp4593
sI4590
(lp4594
sI4591
(lp4595
sI4592
(lp4596
sI4593
(lp4597
sI4594
(lp4598
sI4595
(lp4599
sI4596
(lp4600
sI4597
(lp4601
sI4598
(lp4602
sI4599
(lp4603
sI4600
(lp4604
sI4601
(lp4605
sI4602
(lp4606
sI4603
(lp4607
sI4604
(lp4608
sI4605
(lp4609
sI4606
(lp4610
sI4607
(lp4611
sI4608
(lp4612
sI4609
(lp4613
sI4610
(lp4614
sI4611
(lp4615
sI4612
(lp4616
sI4613
(lp4617
sI4614
(lp4618
sI4615
(lp4619
sI4616
(lp4620
sI4617
(lp4621
sI4618
(lp4622
sI4619
(lp4623
sI4620
(lp4624
sI4621
(lp4625
sI4622
(lp4626
sI4623
(lp4627
sI4624
(lp4628
sI4625
(lp4629
sI4626
(lp4630
sI4627
(lp4631
sI4628
(lp4632
sI4629
(lp4633
sI4630
(lp4634
sI4631
(lp4635
sI4632
(lp4636
sI4633
(lp4637
sI4634
(lp4638
sI4635
(lp4639
sI4636
(lp4640
sI4637
(lp4641
sI4638
(lp4642
sI4639
(lp4643
sI4640
(lp4644
sI4641
(lp4645
sI4642
(lp4646
sI4643
(lp4647
sI4644
(lp4648
sI4645
(lp4649
sI4646
(lp4650
sI4647
(lp4651
sI4648
(lp4652
sI4649
(lp4653
sI4650
(lp4654
sI4651
(lp4655
sI4652
(lp4656
sI4653
(lp4657
sI4654
(lp4658
sI4655
(lp4659
sI4656
(lp4660
sI4657
(lp4661
sI4658
(lp4662
sI4659
(lp4663
sI4660
(lp4664
sI4661
(lp4665
sI4662
(lp4666
sI4663
(lp4667
sI4664
(lp4668
sI4665
(lp4669
sI4666
(lp4670
sI4667
(lp4671
sI4668
(lp4672
sI4669
(lp4673
sI4670
(lp4674
sI4671
(lp4675
sI4672
(lp4676
sI4673
(lp4677
sI4674
(lp4678
sI4675
(lp4679
sI4676
(lp4680
sI4677
(lp4681
sI4678
(lp4682
sI4679
(lp4683
sI4680
(lp4684
sI4681
(lp4685
sI4682
(lp4686
sI4683
(lp4687
sI4684
(lp4688
sI4685
(lp4689
sI4686
(lp4690
sI4687
(lp4691
sI4688
(lp4692
sI4689
(lp4693
sI4690
(lp4694
sI4691
(lp4695
sI4692
(lp4696
sI4693
(lp4697
sI4694
(lp4698
sI4695
(lp4699
sI4696
(lp4700
sI4697
(lp4701
sI4698
(lp4702
sI4699
(lp4703
sI4700
(lp4704
sI4701
(lp4705
sI4702
(lp4706
sI4703
(lp4707
sI4704
(lp4708
sI4705
(lp4709
sI4706
(lp4710
sI4707
(lp4711
sI4708
(lp4712
sI4709
(lp4713
sI4710
(lp4714
sI4711
(lp4715
sI4712
(lp4716
sI4713
(lp4717
sI4714
(lp4718
sI4715
(lp4719
sI4716
(lp4720
sI4717
(lp4721
sI4718
(lp4722
sI4719
(lp4723
sI4720
(lp4724
sI4721
(lp4725
sI4722
(lp4726
sI4723
(lp4727
sI4724
(lp4728
sI4725
(lp4729
sI4726
(lp4730
sI4727
(lp4731
sI4728
(lp4732
sI4729
(lp4733
sI4730
(lp4734
sI4731
(lp4735
sI4732
(lp4736
sI4733
(lp4737
sI4734
(lp4738
sI4735
(lp4739
sI4736
(lp4740
sI4737
(lp4741
sI4738
(lp4742
sI4739
(lp4743
sI4740
(lp4744
sI4741
(lp4745
sI4742
(lp4746
sI4743
(lp4747
sI4744
(lp4748
sI4745
(lp4749
sI4746
(lp4750
sI4747
(lp4751
sI4748
(lp4752
sI4749
(lp4753
sI4750
(lp4754
sI4751
(lp4755
sI4752
(lp4756
sI4753
(lp4757
sI4754
(lp4758
sI4755
(lp4759
sI4756
(lp4760
sI4757
(lp4761
sI4758
(lp4762
sI4759
(lp4763
sI4760
(lp4764
sI4761
(lp4765
sI4762
(lp4766
sI4763
(lp4767
sI4764
(lp4768
sI4765
(lp4769
sI4766
(lp4770
sI4767
(lp4771
sI4768
(lp4772
sI4769
(lp4773
sI4770
(lp4774
sI4771
(lp4775
sI4772
(lp4776
sI4773
(lp4777
sI4774
(lp4778
sI4775
(lp4779
sI4776
(lp4780
sI4777
(lp4781
sI4778
(lp4782
sI4779
(lp4783
sI4780
(lp4784
sI4781
(lp4785
sI4782
(lp4786
sI4783
(lp4787
sI4784
(lp4788
sI4785
(lp4789
sI4786
(lp4790
sI4787
(lp4791
sI4788
(lp4792
sI4789
(lp4793
sI4790
(lp4794
sI4791
(lp4795
sI4792
(lp4796
sI4793
(lp4797
sI4794
(lp4798
sI4795
(lp4799
sI4796
(lp4800
sI4797
(lp4801
sI4798
(lp4802
sI4799
(lp4803
sI4800
(lp4804
sI4801
(lp4805
sI4802
(lp4806
sI4803
(lp4807
sI4804
(lp4808
sI4805
(lp4809
sI4806
(lp4810
sI4807
(lp4811
sI4808
(lp4812
sI4809
(lp4813
sI4810
(lp4814
sI4811
(lp4815
sI4812
(lp4816
sI4813
(lp4817
sI4814
(lp4818
sI4815
(lp4819
sI4816
(lp4820
sI4817
(lp4821
sI4818
(lp4822
sI4819
(lp4823
sI4820
(lp4824
sI4821
(lp4825
sI4822
(lp4826
sI4823
(lp4827
sI4824
(lp4828
sI4825
(lp4829
sI4826
(lp4830
sI4827
(lp4831
sI4828
(lp4832
sI4829
(lp4833
sI4830
(lp4834
sI4831
(lp4835
sI4832
(lp4836
sI4833
(lp4837
sI4834
(lp4838
sI4835
(lp4839
sI4836
(lp4840
sI4837
(lp4841
sI4838
(lp4842
sI4839
(lp4843
sI4840
(lp4844
sI4841
(lp4845
sI4842
(lp4846
sI4843
(lp4847
sI4844
(lp4848
sI4845
(lp4849
sI4846
(lp4850
sI4847
(lp4851
sI4848
(lp4852
sI4849
(lp4853
sI4850
(lp4854
sI4851
(lp4855
sI4852
(lp4856
sI4853
(lp4857
sI4854
(lp4858
sI4855
(lp4859
sI4856
(lp4860
sI4857
(lp4861
sI4858
(lp4862
sI4859
(lp4863
sI4860
(lp4864
sI4861
(lp4865
sI4862
(lp4866
sI4863
(lp4867
sI4864
(lp4868
sI4865
(lp4869
sI4866
(lp4870
sI4867
(lp4871
sI4868
(lp4872
sI4869
(lp4873
sI4870
(lp4874
sI4871
(lp4875
sI4872
(lp4876
sI4873
(lp4877
sI4874
(lp4878
sI4875
(lp4879
sI4876
(lp4880
sI4877
(lp4881
sI4878
(lp4882
sI4879
(lp4883
sI4880
(lp4884
sI4881
(lp4885
sI4882
(lp4886
sI4883
(lp4887
sI4884
(lp4888
sI4885
(lp4889
sI4886
(lp4890
sI4887
(lp4891
sI4888
(lp4892
sI4889
(lp4893
sI4890
(lp4894
sI4891
(lp4895
sI4892
(lp4896
sI4893
(lp4897
sI4894
(lp4898
sI4895
(lp4899
sI4896
(lp4900
sI4897
(lp4901
sI4898
(lp4902
sI4899
(lp4903
sI4900
(lp4904
sI4901
(lp4905
sI4902
(lp4906
sI4903
(lp4907
sI4904
(lp4908
sI4905
(lp4909
sI4906
(lp4910
sI4907
(lp4911
sI4908
(lp4912
sI4909
(lp4913
sI4910
(lp4914
sI4911
(lp4915
sI4912
(lp4916
sI4913
(lp4917
sI4914
(lp4918
sI4915
(lp4919
sI4916
(lp4920
sI4917
(lp4921
sI4918
(lp4922
sI4919
(lp4923
sI4920
(lp4924
sI4921
(lp4925
sI4922
(lp4926
sI4923
(lp4927
sI4924
(lp4928
sI4925
(lp4929
sI4926
(lp4930
sI4927
(lp4931
sI4928
(lp4932
sI4929
(lp4933
sI4930
(lp4934
sI4931
(lp4935
sI4932
(lp4936
sI4933
(lp4937
sI4934
(lp4938
sI4935
(lp4939
sI4936
(lp4940
sI4937
(lp4941
sI4938
(lp4942
sI4939
(lp4943
sI4940
(lp4944
sI4941
(lp4945
sI4942
(lp4946
sI4943
(lp4947
sI4944
(lp4948
sI4945
(lp4949
sI4946
(lp4950
sI4947
(lp4951
sI4948
(lp4952
sI4949
(lp4953
sI4950
(lp4954
sI4951
(lp4955
sI4952
(lp4956
sI4953
(lp4957
sI4954
(lp4958
sI4955
(lp4959
sI4956
(lp4960
sI4957
(lp4961
sI4958
(lp4962
sI4959
(lp4963
sI4960
(lp4964
sI4961
(lp4965
sI4962
(lp4966
sI4963
(lp4967
sI4964
(lp4968
sI4965
(lp4969
sI4966
(lp4970
sI4967
(lp4971
sI4968
(lp4972
sI4969
(lp4973
sI4970
(lp4974
sI4971
(lp4975
sI4972
(lp4976
sI4973
(lp4977
sI4974
(lp4978
sI4975
(lp4979
sI4976
(lp4980
sI4977
(lp4981
sI4978
(lp4982
sI4979
(lp4983
sI4980
(lp4984
sI4981
(lp4985
sI4982
(lp4986
sI4983
(lp4987
sI4984
(lp4988
sI4985
(lp4989
sI4986
(lp4990
sI4987
(lp4991
sI4988
(lp4992
sI4989
(lp4993
sI4990
(lp4994
sI4991
(lp4995
sI4992
(lp4996
sI4993
(lp4997
sI4994
(lp4998
sI4995
(lp4999
sI4996
(lp5000
sI4997
(lp5001
sI4998
(lp5002
sI4999
(lp5003
sI5000
(lp5004
sI5001
(lp5005
sI5002
(lp5006
sI5003
(lp5007
sI5004
(lp5008
sI5005
(lp5009
sI5006
(lp5010
sI5007
(lp5011
sI5008
(lp5012
sI5009
(lp5013
sI5010
(lp5014
sI5011
(lp5015
sI5012
(lp5016
sI5013
(lp5017
sI5014
(lp5018
sI5015
(lp5019
sI5016
(lp5020
sI5017
(lp5021
sI5018
(lp5022
sI5019
(lp5023
sI5020
(lp5024
sI5021
(lp5025
sI5022
(lp5026
sI5023
(lp5027
sI5024
(lp5028
sI5025
(lp5029
sI5026
(lp5030
sI5027
(lp5031
sI5028
(lp5032
sI5029
(lp5033
sI5030
(lp5034
sI5031
(lp5035
sI5032
(lp5036
sI5033
(lp5037
sI5034
(lp5038
sI5035
(lp5039
sI5036
(lp5040
sI5037
(lp5041
sI5038
(lp5042
sI5039
(lp5043
sI5040
(lp5044
sI5041
(lp5045
sI5042
(lp5046
sI5043
(lp5047
sI5044
(lp5048
sI5045
(lp5049
sI5046
(lp5050
sI5047
(lp5051
sI5048
(lp5052
sI5049
(lp5053
sI5050
(lp5054
sI5051
(lp5055
sI5052
(lp5056
sI5053
(lp5057
sI5054
(lp5058
sI5055
(lp5059
sI5056
(lp5060
sI5057
(lp5061
sI5058
(lp5062
sI5059
(lp5063
sI5060
(lp5064
sI5061
(lp5065
sI5062
(lp5066
sI5063
(lp5067
sI5064
(lp5068
sI5065
(lp5069
sI5066
(lp5070
sI5067
(lp5071
sI5068
(lp5072
sI5069
(lp5073
sI5070
(lp5074
sI5071
(lp5075
sI5072
(lp5076
sI5073
(lp5077
sI5074
(lp5078
sI5075
(lp5079
sI5076
(lp5080
sI5077
(lp5081
sI5078
(lp5082
sI5079
(lp5083
sI5080
(lp5084
sI5081
(lp5085
sI5082
(lp5086
sI5083
(lp5087
sI5084
(lp5088
sI5085
(lp5089
sI5086
(lp5090
sI5087
(lp5091
sI5088
(lp5092
sI5089
(lp5093
sI5090
(lp5094
sI5091
(lp5095
sI5092
(lp5096
sI5093
(lp5097
sI5094
(lp5098
sI5095
(lp5099
sI5096
(lp5100
sI5097
(lp5101
sI5098
(lp5102
sI5099
(lp5103
sI5100
(lp5104
sI5101
(lp5105
sI5102
(lp5106
sI5103
(lp5107
sI5104
(lp5108
sI5105
(lp5109
sI5106
(lp5110
sI5107
(lp5111
sI5108
(lp5112
sI5109
(lp5113
sI5110
(lp5114
sI5111
(lp5115
sI5112
(lp5116
sI5113
(lp5117
sI5114
(lp5118
sI5115
(lp5119
sI5116
(lp5120
sI5117
(lp5121
sI5118
(lp5122
sI5119
(lp5123
sI5120
(lp5124
sI5121
(lp5125
sI5122
(lp5126
sI5123
(lp5127
sI5124
(lp5128
sI5125
(lp5129
sI5126
(lp5130
sI5127
(lp5131
sI5128
(lp5132
sI5129
(lp5133
sI5130
(lp5134
sI5131
(lp5135
sI5132
(lp5136
sI5133
(lp5137
sI5134
(lp5138
sI5135
(lp5139
sI5136
(lp5140
sI5137
(lp5141
sI5138
(lp5142
sI5139
(lp5143
sI5140
(lp5144
sI5141
(lp5145
sI5142
(lp5146
sI5143
(lp5147
sI5144
(lp5148
sI5145
(lp5149
sI5146
(lp5150
sI5147
(lp5151
sI5148
(lp5152
sI5149
(lp5153
sI5150
(lp5154
sI5151
(lp5155
sI5152
(lp5156
sI5153
(lp5157
sI5154
(lp5158
sI5155
(lp5159
sI5156
(lp5160
sI5157
(lp5161
sI5158
(lp5162
sI5159
(lp5163
sI5160
(lp5164
sI5161
(lp5165
sI5162
(lp5166
sI5163
(lp5167
sI5164
(lp5168
sI5165
(lp5169
sI5166
(lp5170
sI5167
(lp5171
sI5168
(lp5172
sI5169
(lp5173
sI5170
(lp5174
sI5171
(lp5175
sI5172
(lp5176
sI5173
(lp5177
sI5174
(lp5178
sI5175
(lp5179
sI5176
(lp5180
sI5177
(lp5181
sI5178
(lp5182
sI5179
(lp5183
sI5180
(lp5184
sI5181
(lp5185
sI5182
(lp5186
sI5183
(lp5187
sI5184
(lp5188
sI5185
(lp5189
sI5186
(lp5190
sI5187
(lp5191
sI5188
(lp5192
sI5189
(lp5193
sI5190
(lp5194
sI5191
(lp5195
sI5192
(lp5196
sI5193
(lp5197
sI5194
(lp5198
sI5195
(lp5199
sI5196
(lp5200
sI5197
(lp5201
sI5198
(lp5202
sI5199
(lp5203
sI5200
(lp5204
sI5201
(lp5205
sI5202
(lp5206
sI5203
(lp5207
sI5204
(lp5208
sI5205
(lp5209
sI5206
(lp5210
sI5207
(lp5211
sI5208
(lp5212
sI5209
(lp5213
sI5210
(lp5214
sI5211
(lp5215
sI5212
(lp5216
sI5213
(lp5217
sI5214
(lp5218
sI5215
(lp5219
sI5216
(lp5220
sI5217
(lp5221
sI5218
(lp5222
sI5219
(lp5223
sI5220
(lp5224
sI5221
(lp5225
sI5222
(lp5226
sI5223
(lp5227
sI5224
(lp5228
sI5225
(lp5229
sI5226
(lp5230
sI5227
(lp5231
sI5228
(lp5232
sI5229
(lp5233
sI5230
(lp5234
sI5231
(lp5235
sI5232
(lp5236
sI5233
(lp5237
sI5234
(lp5238
sI5235
(lp5239
sI5236
(lp5240
sI5237
(lp5241
sI5238
(lp5242
sI5239
(lp5243
sI5240
(lp5244
sI5241
(lp5245
sI5242
(lp5246
sI5243
(lp5247
sI5244
(lp5248
sI5245
(lp5249
sI5246
(lp5250
sI5247
(lp5251
sI5248
(lp5252
sI5249
(lp5253
sI5250
(lp5254
sI5251
(lp5255
sI5252
(lp5256
sI5253
(lp5257
sI5254
(lp5258
sI5255
(lp5259
sI5256
(lp5260
sI5257
(lp5261
sI5258
(lp5262
sI5259
(lp5263
sI5260
(lp5264
sI5261
(lp5265
sI5262
(lp5266
sI5263
(lp5267
sI5264
(lp5268
sI5265
(lp5269
sI5266
(lp5270
sI5267
(lp5271
sI5268
(lp5272
sI5269
(lp5273
sI5270
(lp5274
sI5271
(lp5275
sI5272
(lp5276
sI5273
(lp5277
sI5274
(lp5278
sI5275
(lp5279
sI5276
(lp5280
sI5277
(lp5281
sI5278
(lp5282
sI5279
(lp5283
sI5280
(lp5284
sI5281
(lp5285
sI5282
(lp5286
sI5283
(lp5287
sI5284
(lp5288
sI5285
(lp5289
sI5286
(lp5290
sI5287
(lp5291
sI5288
(lp5292
sI5289
(lp5293
sI5290
(lp5294
sI5291
(lp5295
sI5292
(lp5296
sI5293
(lp5297
sI5294
(lp5298
sI5295
(lp5299
sI5296
(lp5300
sI5297
(lp5301
sI5298
(lp5302
sI5299
(lp5303
sI5300
(lp5304
sI5301
(lp5305
sI5302
(lp5306
sI5303
(lp5307
sI5304
(lp5308
sI5305
(lp5309
sI5306
(lp5310
sI5307
(lp5311
sI5308
(lp5312
sI5309
(lp5313
sI5310
(lp5314
sI5311
(lp5315
sI5312
(lp5316
sI5313
(lp5317
sI5314
(lp5318
sI5315
(lp5319
sI5316
(lp5320
sI5317
(lp5321
sI5318
(lp5322
sI5319
(lp5323
sI5320
(lp5324
sI5321
(lp5325
sI5322
(lp5326
sI5323
(lp5327
sI5324
(lp5328
sI5325
(lp5329
sI5326
(lp5330
sI5327
(lp5331
sI5328
(lp5332
sI5329
(lp5333
sI5330
(lp5334
sI5331
(lp5335
sI5332
(lp5336
sI5333
(lp5337
sI5334
(lp5338
sI5335
(lp5339
sI5336
(lp5340
sI5337
(lp5341
sI5338
(lp5342
sI5339
(lp5343
sI5340
(lp5344
sI5341
(lp5345
sI5342
(lp5346
sI5343
(lp5347
sI5344
(lp5348
sI5345
(lp5349
sI5346
(lp5350
sI5347
(lp5351
sI5348
(lp5352
sI5349
(lp5353
sI5350
(lp5354
sI5351
(lp5355
sI5352
(lp5356
sI5353
(lp5357
sI5354
(lp5358
sI5355
(lp5359
sI5356
(lp5360
sI5357
(lp5361
sI5358
(lp5362
sI5359
(lp5363
sI5360
(lp5364
sI5361
(lp5365
sI5362
(lp5366
sI5363
(lp5367
sI5364
(lp5368
sI5365
(lp5369
sI5366
(lp5370
sI5367
(lp5371
sI5368
(lp5372
sI5369
(lp5373
sI5370
(lp5374
sI5371
(lp5375
sI5372
(lp5376
sI5373
(lp5377
sI5374
(lp5378
sI5375
(lp5379
sI5376
(lp5380
sI5377
(lp5381
sI5378
(lp5382
sI5379
(lp5383
sI5380
(lp5384
sI5381
(lp5385
sI5382
(lp5386
sI5383
(lp5387
sI5384
(lp5388
sI5385
(lp5389
sI5386
(lp5390
sI5387
(lp5391
sI5388
(lp5392
sI5389
(lp5393
sI5390
(lp5394
sI5391
(lp5395
sI5392
(lp5396
sI5393
(lp5397
sI5394
(lp5398
sI5395
(lp5399
sI5396
(lp5400
sI5397
(lp5401
sI5398
(lp5402
sI5399
(lp5403
sI5400
(lp5404
sI5401
(lp5405
sI5402
(lp5406
sI5403
(lp5407
sI5404
(lp5408
sI5405
(lp5409
sI5406
(lp5410
sI5407
(lp5411
sI5408
(lp5412
sI5409
(lp5413
sI5410
(lp5414
sI5411
(lp5415
sI5412
(lp5416
sI5413
(lp5417
sI5414
(lp5418
sI5415
(lp5419
sI5416
(lp5420
sI5417
(lp5421
sI5418
(lp5422
sI5419
(lp5423
sI5420
(lp5424
sI5421
(lp5425
sI5422
(lp5426
sI5423
(lp5427
sI5424
(lp5428
sI5425
(lp5429
sI5426
(lp5430
sI5427
(lp5431
sI5428
(lp5432
sI5429
(lp5433
sI5430
(lp5434
sI5431
(lp5435
sI5432
(lp5436
sI5433
(lp5437
sI5434
(lp5438
sI5435
(lp5439
sI5436
(lp5440
sI5437
(lp5441
sI5438
(lp5442
sI5439
(lp5443
sI5440
(lp5444
sI5441
(lp5445
sI5442
(lp5446
sI5443
(lp5447
sI5444
(lp5448
sI5445
(lp5449
sI5446
(lp5450
sI5447
(lp5451
sI5448
(lp5452
sI5449
(lp5453
sI5450
(lp5454
sI5451
(lp5455
sI5452
(lp5456
sI5453
(lp5457
sI5454
(lp5458
sI5455
(lp5459
sI5456
(lp5460
sI5457
(lp5461
sI5458
(lp5462
sI5459
(lp5463
sI5460
(lp5464
sI5461
(lp5465
sI5462
(lp5466
sI5463
(lp5467
sI5464
(lp5468
sI5465
(lp5469
sI5466
(lp5470
sI5467
(lp5471
sI5468
(lp5472
sI5469
(lp5473
sI5470
(lp5474
sI5471
(lp5475
sI5472
(lp5476
sI5473
(lp5477
sI5474
(lp5478
sI5475
(lp5479
sI5476
(lp5480
sI5477
(lp5481
sI5478
(lp5482
sI5479
(lp5483
sI5480
(lp5484
sI5481
(lp5485
sI5482
(lp5486
sI5483
(lp5487
sI5484
(lp5488
sI5485
(lp5489
sI5486
(lp5490
sI5487
(lp5491
sI5488
(lp5492
sI5489
(lp5493
sI5490
(lp5494
sI5491
(lp5495
sI5492
(lp5496
sI5493
(lp5497
sI5494
(lp5498
sI5495
(lp5499
sI5496
(lp5500
sI5497
(lp5501
sI5498
(lp5502
sI5499
(lp5503
sI5500
(lp5504
sI5501
(lp5505
sI5502
(lp5506
sI5503
(lp5507
sI5504
(lp5508
sI5505
(lp5509
sI5506
(lp5510
sI5507
(lp5511
sI5508
(lp5512
sI5509
(lp5513
sI5510
(lp5514
sI5511
(lp5515
sI5512
(lp5516
sI5513
(lp5517
sI5514
(lp5518
sI5515
(lp5519
sI5516
(lp5520
sI5517
(lp5521
sI5518
(lp5522
sI5519
(lp5523
sI5520
(lp5524
sI5521
(lp5525
sI5522
(lp5526
sI5523
(lp5527
sI5524
(lp5528
sI5525
(lp5529
sI5526
(lp5530
sI5527
(lp5531
sI5528
(lp5532
sI5529
(lp5533
sI5530
(lp5534
sI5531
(lp5535
sI5532
(lp5536
sI5533
(lp5537
sI5534
(lp5538
sI5535
(lp5539
sI5536
(lp5540
sI5537
(lp5541
sI5538
(lp5542
sI5539
(lp5543
sI5540
(lp5544
sI5541
(lp5545
sI5542
(lp5546
sI5543
(lp5547
sI5544
(lp5548
sI5545
(lp5549
sI5546
(lp5550
sI5547
(lp5551
sI5548
(lp5552
sI5549
(lp5553
sI5550
(lp5554
sI5551
(lp5555
sI5552
(lp5556
sI5553
(lp5557
sI5554
(lp5558
sI5555
(lp5559
sI5556
(lp5560
sI5557
(lp5561
sI5558
(lp5562
sI5559
(lp5563
sI5560
(lp5564
sI5561
(lp5565
sI5562
(lp5566
sI5563
(lp5567
sI5564
(lp5568
sI5565
(lp5569
sI5566
(lp5570
sI5567
(lp5571
sI5568
(lp5572
sI5569
(lp5573
sI5570
(lp5574
sI5571
(lp5575
sI5572
(lp5576
sI5573
(lp5577
sI5574
(lp5578
sI5575
(lp5579
sI5576
(lp5580
sI5577
(lp5581
sI5578
(lp5582
sI5579
(lp5583
sI5580
(lp5584
sI5581
(lp5585
sI5582
(lp5586
sI5583
(lp5587
sI5584
(lp5588
sI5585
(lp5589
sI5586
(lp5590
sI5587
(lp5591
sI5588
(lp5592
sI5589
(lp5593
sI5590
(lp5594
sI5591
(lp5595
sI5592
(lp5596
sI5593
(lp5597
sI5594
(lp5598
sI5595
(lp5599
sI5596
(lp5600
sI5597
(lp5601
sI5598
(lp5602
sI5599
(lp5603
sI5600
(lp5604
sI5601
(lp5605
sI5602
(lp5606
sI5603
(lp5607
sI5604
(lp5608
sI5605
(lp5609
sI5606
(lp5610
sI5607
(lp5611
sI5608
(lp5612
sI5609
(lp5613
sI5610
(lp5614
sI5611
(lp5615
sI5612
(lp5616
sI5613
(lp5617
sI5614
(lp5618
sI5615
(lp5619
sI5616
(lp5620
sI5617
(lp5621
sI5618
(lp5622
sI5619
(lp5623
sI5620
(lp5624
sI5621
(lp5625
sI5622
(lp5626
sI5623
(lp5627
sI5624
(lp5628
sI5625
(lp5629
sI5626
(lp5630
sI5627
(lp5631
sI5628
(lp5632
sI5629
(lp5633
sI5630
(lp5634
sI5631
(lp5635
sI5632
(lp5636
sI5633
(lp5637
sI5634
(lp5638
sI5635
(lp5639
sI5636
(lp5640
sI5637
(lp5641
sI5638
(lp5642
sI5639
(lp5643
sI5640
(lp5644
sI5641
(lp5645
sI5642
(lp5646
sI5643
(lp5647
sI5644
(lp5648
sI5645
(lp5649
sI5646
(lp5650
sI5647
(lp5651
sI5648
(lp5652
sI5649
(lp5653
sI5650
(lp5654
sI5651
(lp5655
sI5652
(lp5656
sI5653
(lp5657
sI5654
(lp5658
sI5655
(lp5659
sI5656
(lp5660
sI5657
(lp5661
sI5658
(lp5662
sI5659
(lp5663
sI5660
(lp5664
sI5661
(lp5665
sI5662
(lp5666
sI5663
(lp5667
sI5664
(lp5668
sI5665
(lp5669
sI5666
(lp5670
sI5667
(lp5671
sI5668
(lp5672
sI5669
(lp5673
sI5670
(lp5674
sI5671
(lp5675
sI5672
(lp5676
sI5673
(lp5677
sI5674
(lp5678
sI5675
(lp5679
sI5676
(lp5680
sI5677
(lp5681
sI5678
(lp5682
sI5679
(lp5683
sI5680
(lp5684
sI5681
(lp5685
sI5682
(lp5686
sI5683
(lp5687
sI5684
(lp5688
sI5685
(lp5689
sI5686
(lp5690
sI5687
(lp5691
sI5688
(lp5692
sI5689
(lp5693
sI5690
(lp5694
sI5691
(lp5695
sI5692
(lp5696
sI5693
(lp5697
sI5694
(lp5698
sI5695
(lp5699
sI5696
(lp5700
sI5697
(lp5701
sI5698
(lp5702
sI5699
(lp5703
sI5700
(lp5704
sI5701
(lp5705
sI5702
(lp5706
sI5703
(lp5707
sI5704
(lp5708
sI5705
(lp5709
sI5706
(lp5710
sI5707
(lp5711
sI5708
(lp5712
sI5709
(lp5713
sI5710
(lp5714
sI5711
(lp5715
sI5712
(lp5716
sI5713
(lp5717
sI5714
(lp5718
sI5715
(lp5719
sI5716
(lp5720
sI5717
(lp5721
sI5718
(lp5722
sI5719
(lp5723
sI5720
(lp5724
sI5721
(lp5725
sI5722
(lp5726
sI5723
(lp5727
sI5724
(lp5728
sI5725
(lp5729
sI5726
(lp5730
sI5727
(lp5731
sI5728
(lp5732
sI5729
(lp5733
sI5730
(lp5734
sI5731
(lp5735
sI5732
(lp5736
sI5733
(lp5737
sI5734
(lp5738
sI5735
(lp5739
sI5736
(lp5740
sI5737
(lp5741
sI5738
(lp5742
sI5739
(lp5743
sI5740
(lp5744
sI5741
(lp5745
sI5742
(lp5746
sI5743
(lp5747
sI5744
(lp5748
sI5745
(lp5749
sI5746
(lp5750
sI5747
(lp5751
sI5748
(lp5752
sI5749
(lp5753
sI5750
(lp5754
sI5751
(lp5755
sI5752
(lp5756
sI5753
(lp5757
sI5754
(lp5758
sI5755
(lp5759
sI5756
(lp5760
sI5757
(lp5761
sI5758
(lp5762
sI5759
(lp5763
sI5760
(lp5764
sI5761
(lp5765
sI5762
(lp5766
sI5763
(lp5767
sI5764
(lp5768
sI5765
(lp5769
sI5766
(lp5770
sI5767
(lp5771
sI5768
(lp5772
sI5769
(lp5773
sI5770
(lp5774
sI5771
(lp5775
sI5772
(lp5776
sI5773
(lp5777
sI5774
(lp5778
sI5775
(lp5779
sI5776
(lp5780
sI5777
(lp5781
sI5778
(lp5782
sI5779
(lp5783
sI5780
(lp5784
sI5781
(lp5785
sI5782
(lp5786
sI5783
(lp5787
sI5784
(lp5788
sI5785
(lp5789
sI5786
(lp5790
sI5787
(lp5791
sI5788
(lp5792
sI5789
(lp5793
sI5790
(lp5794
sI5791
(lp5795
sI5792
(lp5796
sI5793
(lp5797
sI5794
(lp5798
sI5795
(lp5799
sI5796
(lp5800
sI5797
(lp5801
sI5798
(lp5802
sI5799
(lp5803
sI5800
(lp5804
sI5801
(lp5805
sI5802
(lp5806
sI5803
(lp5807
sI5804
(lp5808
sI5805
(lp5809
sI5806
(lp5810
sI5807
(lp5811
sI5808
(lp5812
sI5809
(lp5813
sI5810
(lp5814
sI5811
(lp5815
sI5812
(lp5816
sI5813
(lp5817
sI5814
(lp5818
sI5815
(lp5819
sI5816
(lp5820
sI5817
(lp5821
sI5818
(lp5822
sI5819
(lp5823
sI5820
(lp5824
sI5821
(lp5825
sI5822
(lp5826
sI5823
(lp5827
sI5824
(lp5828
sI5825
(lp5829
sI5826
(lp5830
sI5827
(lp5831
sI5828
(lp5832
sI5829
(lp5833
sI5830
(lp5834
sI5831
(lp5835
sI5832
(lp5836
sI5833
(lp5837
sI5834
(lp5838
sI5835
(lp5839
sI5836
(lp5840
sI5837
(lp5841
sI5838
(lp5842
sI5839
(lp5843
sI5840
(lp5844
sI5841
(lp5845
sI5842
(lp5846
sI5843
(lp5847
sI5844
(lp5848
sI5845
(lp5849
sI5846
(lp5850
sI5847
(lp5851
sI5848
(lp5852
sI5849
(lp5853
sI5850
(lp5854
sI5851
(lp5855
sI5852
(lp5856
sI5853
(lp5857
sI5854
(lp5858
sI5855
(lp5859
sI5856
(lp5860
sI5857
(lp5861
sI5858
(lp5862
sI5859
(lp5863
sI5860
(lp5864
sI5861
(lp5865
sI5862
(lp5866
sI5863
(lp5867
sI5864
(lp5868
sI5865
(lp5869
sI5866
(lp5870
sI5867
(lp5871
sI5868
(lp5872
sI5869
(lp5873
sI5870
(lp5874
sI5871
(lp5875
sI5872
(lp5876
sI5873
(lp5877
sI5874
(lp5878
sI5875
(lp5879
sI5876
(lp5880
sI5877
(lp5881
sI5878
(lp5882
sI5879
(lp5883
sI5880
(lp5884
sI5881
(lp5885
sI5882
(lp5886
sI5883
(lp5887
sI5884
(lp5888
sI5885
(lp5889
sI5886
(lp5890
sI5887
(lp5891
sI5888
(lp5892
sI5889
(lp5893
sI5890
(lp5894
sI5891
(lp5895
sI5892
(lp5896
sI5893
(lp5897
sI5894
(lp5898
sI5895
(lp5899
sI5896
(lp5900
sI5897
(lp5901
sI5898
(lp5902
sI5899
(lp5903
sI5900
(lp5904
sI5901
(lp5905
sI5902
(lp5906
sI5903
(lp5907
sI5904
(lp5908
sI5905
(lp5909
sI5906
(lp5910
sI5907
(lp5911
sI5908
(lp5912
sI5909
(lp5913
sI5910
(lp5914
sI5911
(lp5915
sI5912
(lp5916
sI5913
(lp5917
sI5914
(lp5918
sI5915
(lp5919
sI5916
(lp5920
sI5917
(lp5921
sI5918
(lp5922
sI5919
(lp5923
sI5920
(lp5924
sI5921
(lp5925
sI5922
(lp5926
sI5923
(lp5927
sI5924
(lp5928
sI5925
(lp5929
sI5926
(lp5930
sI5927
(lp5931
sI5928
(lp5932
sI5929
(lp5933
sI5930
(lp5934
sI5931
(lp5935
sI5932
(lp5936
sI5933
(lp5937
sI5934
(lp5938
sI5935
(lp5939
sI5936
(lp5940
sI5937
(lp5941
sI5938
(lp5942
sI5939
(lp5943
sI5940
(lp5944
sI5941
(lp5945
sI5942
(lp5946
sI5943
(lp5947
sI5944
(lp5948
sI5945
(lp5949
sI5946
(lp5950
sI5947
(lp5951
sI5948
(lp5952
sI5949
(lp5953
sI5950
(lp5954
sI5951
(lp5955
sI5952
(lp5956
sI5953
(lp5957
sI5954
(lp5958
sI5955
(lp5959
sI5956
(lp5960
sI5957
(lp5961
sI5958
(lp5962
sI5959
(lp5963
sI5960
(lp5964
sI5961
(lp5965
sI5962
(lp5966
sI5963
(lp5967
sI5964
(lp5968
sI5965
(lp5969
sI5966
(lp5970
sI5967
(lp5971
sI5968
(lp5972
sI5969
(lp5973
sI5970
(lp5974
sI5971
(lp5975
sI5972
(lp5976
sI5973
(lp5977
sI5974
(lp5978
sI5975
(lp5979
sI5976
(lp5980
sI5977
(lp5981
sI5978
(lp5982
sI5979
(lp5983
sI5980
(lp5984
sI5981
(lp5985
sI5982
(lp5986
sI5983
(lp5987
sI5984
(lp5988
sI5985
(lp5989
sI5986
(lp5990
sI5987
(lp5991
sI5988
(lp5992
sI5989
(lp5993
sI5990
(lp5994
sI5991
(lp5995
sI5992
(lp5996
sI5993
(lp5997
sI5994
(lp5998
sI5995
(lp5999
sI5996
(lp6000
sI5997
(lp6001
sI5998
(lp6002
sI5999
(lp6003
sI6000
(lp6004
sI6001
(lp6005
sI6002
(lp6006
sI6003
(lp6007
sI6004
(lp6008
sI6005
(lp6009
sI6006
(lp6010
sI6007
(lp6011
sI6008
(lp6012
sI6009
(lp6013
sI6010
(lp6014
sI6011
(lp6015
sI6012
(lp6016
sI6013
(lp6017
sI6014
(lp6018
sI6015
(lp6019
sI6016
(lp6020
sI6017
(lp6021
sI6018
(lp6022
sI6019
(lp6023
sI6020
(lp6024
sI6021
(lp6025
sI6022
(lp6026
sI6023
(lp6027
sI6024
(lp6028
sI6025
(lp6029
sI6026
(lp6030
sI6027
(lp6031
sI6028
(lp6032
sI6029
(lp6033
sI6030
(lp6034
sI6031
(lp6035
sI6032
(lp6036
sI6033
(lp6037
sI6034
(lp6038
sI6035
(lp6039
sI6036
(lp6040
sI6037
(lp6041
sI6038
(lp6042
sI6039
(lp6043
sI6040
(lp6044
sI6041
(lp6045
sI6042
(lp6046
sI6043
(lp6047
sI6044
(lp6048
sI6045
(lp6049
sI6046
(lp6050
sI6047
(lp6051
sI6048
(lp6052
sI6049
(lp6053
sI6050
(lp6054
sI6051
(lp6055
sI6052
(lp6056
sI6053
(lp6057
sI6054
(lp6058
sI6055
(lp6059
sI6056
(lp6060
sI6057
(lp6061
sI6058
(lp6062
sI6059
(lp6063
sI6060
(lp6064
sI6061
(lp6065
sI6062
(lp6066
sI6063
(lp6067
sI6064
(lp6068
sI6065
(lp6069
sI6066
(lp6070
sI6067
(lp6071
sI6068
(lp6072
sI6069
(lp6073
sI6070
(lp6074
sI6071
(lp6075
sI6072
(lp6076
sI6073
(lp6077
sI6074
(lp6078
sI6075
(lp6079
sI6076
(lp6080
sI6077
(lp6081
sI6078
(lp6082
sI6079
(lp6083
sI6080
(lp6084
sI6081
(lp6085
sI6082
(lp6086
sI6083
(lp6087
sI6084
(lp6088
sI6085
(lp6089
sI6086
(lp6090
sI6087
(lp6091
sI6088
(lp6092
sI6089
(lp6093
sI6090
(lp6094
sI6091
(lp6095
sI6092
(lp6096
sI6093
(lp6097
sI6094
(lp6098
sI6095
(lp6099
sI6096
(lp6100
sI6097
(lp6101
sI6098
(lp6102
sI6099
(lp6103
sI6100
(lp6104
sI6101
(lp6105
sI6102
(lp6106
sI6103
(lp6107
sI6104
(lp6108
sI6105
(lp6109
sI6106
(lp6110
sI6107
(lp6111
sI6108
(lp6112
sI6109
(lp6113
sI6110
(lp6114
sI6111
(lp6115
sI6112
(lp6116
sI6113
(lp6117
sI6114
(lp6118
sI6115
(lp6119
sI6116
(lp6120
sI6117
(lp6121
sI6118
(lp6122
sI6119
(lp6123
sI6120
(lp6124
sI6121
(lp6125
sI6122
(lp6126
sI6123
(lp6127
sI6124
(lp6128
sI6125
(lp6129
sI6126
(lp6130
sI6127
(lp6131
sI6128
(lp6132
sI6129
(lp6133
sI6130
(lp6134
sI6131
(lp6135
sI6132
(lp6136
sI6133
(lp6137
sI6134
(lp6138
sI6135
(lp6139
sI6136
(lp6140
sI6137
(lp6141
sI6138
(lp6142
sI6139
(lp6143
sI6140
(lp6144
sI6141
(lp6145
sI6142
(lp6146
sI6143
(lp6147
sI6144
(lp6148
sI6145
(lp6149
sI6146
(lp6150
sI6147
(lp6151
sI6148
(lp6152
sI6149
(lp6153
sI6150
(lp6154
sI6151
(lp6155
sI6152
(lp6156
sI6153
(lp6157
sI6154
(lp6158
sI6155
(lp6159
sI6156
(lp6160
sI6157
(lp6161
sI6158
(lp6162
sI6159
(lp6163
sI6160
(lp6164
sI6161
(lp6165
sI6162
(lp6166
sI6163
(lp6167
sI6164
(lp6168
sI6165
(lp6169
sI6166
(lp6170
sI6167
(lp6171
sI6168
(lp6172
sI6169
(lp6173
sI6170
(lp6174
sI6171
(lp6175
sI6172
(lp6176
sI6173
(lp6177
sI6174
(lp6178
sI6175
(lp6179
sI6176
(lp6180
sI6177
(lp6181
sI6178
(lp6182
sI6179
(lp6183
sI6180
(lp6184
sI6181
(lp6185
sI6182
(lp6186
sI6183
(lp6187
sI6184
(lp6188
sI6185
(lp6189
sI6186
(lp6190
sI6187
(lp6191
sI6188
(lp6192
sI6189
(lp6193
sI6190
(lp6194
sI6191
(lp6195
sI6192
(lp6196
sI6193
(lp6197
sI6194
(lp6198
sI6195
(lp6199
sI6196
(lp6200
sI6197
(lp6201
sI6198
(lp6202
sI6199
(lp6203
sI6200
(lp6204
sI6201
(lp6205
sI6202
(lp6206
sI6203
(lp6207
sI6204
(lp6208
sI6205
(lp6209
sI6206
(lp6210
sI6207
(lp6211
sI6208
(lp6212
sI6209
(lp6213
sI6210
(lp6214
sI6211
(lp6215
sI6212
(lp6216
sI6213
(lp6217
sI6214
(lp6218
sI6215
(lp6219
sI6216
(lp6220
sI6217
(lp6221
sI6218
(lp6222
sI6219
(lp6223
sI6220
(lp6224
sI6221
(lp6225
sI6222
(lp6226
sI6223
(lp6227
sI6224
(lp6228
sI6225
(lp6229
sI6226
(lp6230
sI6227
(lp6231
sI6228
(lp6232
sI6229
(lp6233
sI6230
(lp6234
sI6231
(lp6235
sI6232
(lp6236
sI6233
(lp6237
sI6234
(lp6238
sI6235
(lp6239
sI6236
(lp6240
sI6237
(lp6241
sI6238
(lp6242
sI6239
(lp6243
sI6240
(lp6244
sI6241
(lp6245
sI6242
(lp6246
sI6243
(lp6247
sI6244
(lp6248
sI6245
(lp6249
sI6246
(lp6250
sI6247
(lp6251
sI6248
(lp6252
sI6249
(lp6253
sI6250
(lp6254
sI6251
(lp6255
sI6252
(lp6256
sI6253
(lp6257
sI6254
(lp6258
sI6255
(lp6259
sI6256
(lp6260
sI6257
(lp6261
sI6258
(lp6262
sI6259
(lp6263
sI6260
(lp6264
sI6261
(lp6265
sI6262
(lp6266
sI6263
(lp6267
sI6264
(lp6268
sI6265
(lp6269
sI6266
(lp6270
sI6267
(lp6271
sI6268
(lp6272
sI6269
(lp6273
sI6270
(lp6274
sI6271
(lp6275
sI6272
(lp6276
sI6273
(lp6277
sI6274
(lp6278
sI6275
(lp6279
sI6276
(lp6280
sI6277
(lp6281
sI6278
(lp6282
sI6279
(lp6283
sI6280
(lp6284
sI6281
(lp6285
sI6282
(lp6286
sI6283
(lp6287
sI6284
(lp6288
sI6285
(lp6289
sI6286
(lp6290
sI6287
(lp6291
sI6288
(lp6292
sI6289
(lp6293
sI6290
(lp6294
sI6291
(lp6295
sI6292
(lp6296
sI6293
(lp6297
sI6294
(lp6298
sI6295
(lp6299
sI6296
(lp6300
sI6297
(lp6301
sI6298
(lp6302
sI6299
(lp6303
sI6300
(lp6304
sI6301
(lp6305
sI6302
(lp6306
sI6303
(lp6307
sI6304
(lp6308
sI6305
(lp6309
sI6306
(lp6310
sI6307
(lp6311
sI6308
(lp6312
sI6309
(lp6313
sI6310
(lp6314
sI6311
(lp6315
sI6312
(lp6316
sI6313
(lp6317
sI6314
(lp6318
sI6315
(lp6319
sI6316
(lp6320
sI6317
(lp6321
sI6318
(lp6322
sI6319
(lp6323
sI6320
(lp6324
sI6321
(lp6325
sI6322
(lp6326
sI6323
(lp6327
sI6324
(lp6328
sI6325
(lp6329
sI6326
(lp6330
sI6327
(lp6331
sI6328
(lp6332
sI6329
(lp6333
sI6330
(lp6334
sI6331
(lp6335
sI6332
(lp6336
sI6333
(lp6337
sI6334
(lp6338
sI6335
(lp6339
sI6336
(lp6340
sI6337
(lp6341
sI6338
(lp6342
sI6339
(lp6343
sI6340
(lp6344
sI6341
(lp6345
sI6342
(lp6346
sI6343
(lp6347
sI6344
(lp6348
sI6345
(lp6349
sI6346
(lp6350
sI6347
(lp6351
sI6348
(lp6352
sI6349
(lp6353
sI6350
(lp6354
sI6351
(lp6355
sI6352
(lp6356
sI6353
(lp6357
sI6354
(lp6358
sI6355
(lp6359
sI6356
(lp6360
sI6357
(lp6361
sI6358
(lp6362
sI6359
(lp6363
sI6360
(lp6364
sI6361
(lp6365
sI6362
(lp6366
sI6363
(lp6367
sI6364
(lp6368
sI6365
(lp6369
sI6366
(lp6370
sI6367
(lp6371
sI6368
(lp6372
sI6369
(lp6373
sI6370
(lp6374
sI6371
(lp6375
sI6372
(lp6376
sI6373
(lp6377
sI6374
(lp6378
sI6375
(lp6379
sI6376
(lp6380
sI6377
(lp6381
sI6378
(lp6382
sI6379
(lp6383
sI6380
(lp6384
sI6381
(lp6385
sI6382
(lp6386
sI6383
(lp6387
sI6384
(lp6388
sI6385
(lp6389
sI6386
(lp6390
sI6387
(lp6391
sI6388
(lp6392
sI6389
(lp6393
sI6390
(lp6394
sI6391
(lp6395
sI6392
(lp6396
sI6393
(lp6397
sI6394
(lp6398
sI6395
(lp6399
sI6396
(lp6400
sI6397
(lp6401
sI6398
(lp6402
sI6399
(lp6403
sI6400
(lp6404
sI6401
(lp6405
sI6402
(lp6406
sI6403
(lp6407
sI6404
(lp6408
sI6405
(lp6409
sI6406
(lp6410
sI6407
(lp6411
sI6408
(lp6412
sI6409
(lp6413
sI6410
(lp6414
sI6411
(lp6415
sI6412
(lp6416
sI6413
(lp6417
sI6414
(lp6418
sI6415
(lp6419
sI6416
(lp6420
sI6417
(lp6421
sI6418
(lp6422
sI6419
(lp6423
sI6420
(lp6424
sI6421
(lp6425
sI6422
(lp6426
sI6423
(lp6427
sI6424
(lp6428
sI6425
(lp6429
sI6426
(lp6430
sI6427
(lp6431
sI6428
(lp6432
sI6429
(lp6433
sI6430
(lp6434
sI6431
(lp6435
sI6432
(lp6436
sI6433
(lp6437
sI6434
(lp6438
sI6435
(lp6439
sI6436
(lp6440
sI6437
(lp6441
sI6438
(lp6442
sI6439
(lp6443
sI6440
(lp6444
sI6441
(lp6445
sI6442
(lp6446
sI6443
(lp6447
sI6444
(lp6448
sI6445
(lp6449
sI6446
(lp6450
sI6447
(lp6451
sI6448
(lp6452
sI6449
(lp6453
sI6450
(lp6454
sI6451
(lp6455
sI6452
(lp6456
sI6453
(lp6457
sI6454
(lp6458
sI6455
(lp6459
sI6456
(lp6460
sI6457
(lp6461
sI6458
(lp6462
sI6459
(lp6463
sI6460
(lp6464
sI6461
(lp6465
sI6462
(lp6466
sI6463
(lp6467
sI6464
(lp6468
sI6465
(lp6469
sI6466
(lp6470
sI6467
(lp6471
sI6468
(lp6472
sI6469
(lp6473
sI6470
(lp6474
sI6471
(lp6475
sI6472
(lp6476
sI6473
(lp6477
sI6474
(lp6478
sI6475
(lp6479
sI6476
(lp6480
sI6477
(lp6481
sI6478
(lp6482
sI6479
(lp6483
sI6480
(lp6484
sI6481
(lp6485
sI6482
(lp6486
sI6483
(lp6487
sI6484
(lp6488
sI6485
(lp6489
sI6486
(lp6490
sI6487
(lp6491
sI6488
(lp6492
sI6489
(lp6493
sI6490
(lp6494
sI6491
(lp6495
sI6492
(lp6496
sI6493
(lp6497
sI6494
(lp6498
sI6495
(lp6499
sI6496
(lp6500
sI6497
(lp6501
sI6498
(lp6502
sI6499
(lp6503
sI6500
(lp6504
sI6501
(lp6505
sI6502
(lp6506
sI6503
(lp6507
sI6504
(lp6508
sI6505
(lp6509
sI6506
(lp6510
sI6507
(lp6511
sI6508
(lp6512
sI6509
(lp6513
sI6510
(lp6514
sI6511
(lp6515
sI6512
(lp6516
sI6513
(lp6517
sI6514
(lp6518
sI6515
(lp6519
sI6516
(lp6520
sI6517
(lp6521
sI6518
(lp6522
sI6519
(lp6523
sI6520
(lp6524
sI6521
(lp6525
sI6522
(lp6526
sI6523
(lp6527
sI6524
(lp6528
sI6525
(lp6529
sI6526
(lp6530
sI6527
(lp6531
sI6528
(lp6532
sI6529
(lp6533
sI6530
(lp6534
sI6531
(lp6535
sI6532
(lp6536
sI6533
(lp6537
sI6534
(lp6538
sI6535
(lp6539
sI6536
(lp6540
sI6537
(lp6541
sI6538
(lp6542
sI6539
(lp6543
sI6540
(lp6544
sI6541
(lp6545
sI6542
(lp6546
sI6543
(lp6547
sI6544
(lp6548
sI6545
(lp6549
sI6546
(lp6550
sI6547
(lp6551
sI6548
(lp6552
sI6549
(lp6553
sI6550
(lp6554
sI6551
(lp6555
sI6552
(lp6556
sI6553
(lp6557
sI6554
(lp6558
sI6555
(lp6559
sI6556
(lp6560
sI6557
(lp6561
sI6558
(lp6562
sI6559
(lp6563
sI6560
(lp6564
sI6561
(lp6565
sI6562
(lp6566
sI6563
(lp6567
sI6564
(lp6568
sI6565
(lp6569
sI6566
(lp6570
sI6567
(lp6571
sI6568
(lp6572
sI6569
(lp6573
sI6570
(lp6574
sI6571
(lp6575
sI6572
(lp6576
sI6573
(lp6577
sI6574
(lp6578
sI6575
(lp6579
sI6576
(lp6580
sI6577
(lp6581
sI6578
(lp6582
sI6579
(lp6583
sI6580
(lp6584
sI6581
(lp6585
sI6582
(lp6586
sI6583
(lp6587
sI6584
(lp6588
sI6585
(lp6589
sI6586
(lp6590
sI6587
(lp6591
sI6588
(lp6592
sI6589
(lp6593
sI6590
(lp6594
sI6591
(lp6595
sI6592
(lp6596
sI6593
(lp6597
sI6594
(lp6598
sI6595
(lp6599
sI6596
(lp6600
sI6597
(lp6601
sI6598
(lp6602
sI6599
(lp6603
sI6600
(lp6604
sI6601
(lp6605
sI6602
(lp6606
sI6603
(lp6607
sI6604
(lp6608
sI6605
(lp6609
sI6606
(lp6610
sI6607
(lp6611
sI6608
(lp6612
sI6609
(lp6613
sI6610
(lp6614
sI6611
(lp6615
sI6612
(lp6616
sI6613
(lp6617
sI6614
(lp6618
sI6615
(lp6619
sI6616
(lp6620
sI6617
(lp6621
sI6618
(lp6622
sI6619
(lp6623
sI6620
(lp6624
sI6621
(lp6625
sI6622
(lp6626
sI6623
(lp6627
sI6624
(lp6628
sI6625
(lp6629
sI6626
(lp6630
sI6627
(lp6631
sI6628
(lp6632
sI6629
(lp6633
sI6630
(lp6634
sI6631
(lp6635
sI6632
(lp6636
sI6633
(lp6637
sI6634
(lp6638
sI6635
(lp6639
sI6636
(lp6640
sI6637
(lp6641
sI6638
(lp6642
sI6639
(lp6643
sI6640
(lp6644
sI6641
(lp6645
sI6642
(lp6646
sI6643
(lp6647
sI6644
(lp6648
sI6645
(lp6649
sI6646
(lp6650
sI6647
(lp6651
sI6648
(lp6652
sI6649
(lp6653
sI6650
(lp6654
sI6651
(lp6655
sI6652
(lp6656
sI6653
(lp6657
sI6654
(lp6658
sI6655
(lp6659
sI6656
(lp6660
sI6657
(lp6661
sI6658
(lp6662
sI6659
(lp6663
sI6660
(lp6664
sI6661
(lp6665
sI6662
(lp6666
sI6663
(lp6667
sI6664
(lp6668
sI6665
(lp6669
sI6666
(lp6670
sI6667
(lp6671
sI6668
(lp6672
sI6669
(lp6673
sI6670
(lp6674
sI6671
(lp6675
s.